

Microchip MPLAB XC8 Assembler V2.32 build 20210201212658 
                                                                                               Thu Jun 02 19:11:45 2022

Microchip MPLAB XC8 C Compiler v2.32 (Free license) build 20210201212658 Og1 
     1                           	processor	18F26K83
     2                           	fnconf	rparam,??,?,0
     3                           	pagewidth 120
     4                           	opt	flic
     5                           	psect	cinit,global,reloc=2,class=CODE,delta=1
     6                           	psect	bssCOMRAM,global,class=COMRAM,space=1,delta=1,lowdata,noexec
     7                           	psect	cstackCOMRAM,global,class=COMRAM,space=1,delta=1,lowdata,noexec
     8                           	psect	text0,global,reloc=2,class=CODE,delta=1
     9                           	psect	text1,global,reloc=2,class=CODE,delta=1
    10                           	psect	text2,global,reloc=2,class=CODE,delta=1
    11                           	psect	text3,global,reloc=2,class=CODE,delta=1
    12                           	psect	text4,global,reloc=2,class=CODE,delta=1
    13                           	psect	text5,global,reloc=2,class=CODE,delta=1
    14                           	psect	text6,global,reloc=2,class=CODE,delta=1
    15                           	psect	text7,global,reloc=2,class=CODE,delta=1
    16                           	psect	text8,global,reloc=2,class=CODE,delta=1
    17                           	psect	text9,global,reloc=2,class=CODE,delta=1
    18                           	psect	text10,global,reloc=2,class=CODE,delta=1
    19                           	psect	text11,global,reloc=2,class=CODE,delta=1
    20                           	psect	text12,global,reloc=2,class=CODE,delta=1
    21                           	psect	text13,global,reloc=2,class=CODE,delta=1
    22                           	psect	text14,global,reloc=2,class=CODE,delta=1
    23                           	psect	ivt0x8,global,reloc=2,class=CODE,delta=1,noexec,keep,optim=
    24                           	psect	intsave_regs,global,class=BIGRAM,space=1,delta=1,noexec
    25                           	psect	text15,global,reloc=2,class=CODE,delta=1
    26                           	psect	rparam,global,class=COMRAM,space=1,delta=1,noexec
    27                           	psect	idloc,global,abs,ovrld,class=IDLOC,space=5,delta=1,noexec
    28                           	psect	config,global,abs,ovrld,class=CONFIG,space=4,delta=1,noexec
    29  0000                     
    30                           ; Version 2.20
    31                           ; Generated 05/05/2020 GMT
    32                           ; 
    33                           ; Copyright © 2020, Microchip Technology Inc. and its subsidiaries ("Microchip")
    34                           ; All rights reserved.
    35                           ; 
    36                           ; This software is developed by Microchip Technology Inc. and its subsidiaries ("Microch
      +                          ip").
    37                           ; 
    38                           ; Redistribution and use in source and binary forms, with or without modification, are
    39                           ; permitted provided that the following conditions are met:
    40                           ; 
    41                           ;     1. Redistributions of source code must retain the above copyright notice, this lis
      +                          t of
    42                           ;        conditions and the following disclaimer.
    43                           ; 
    44                           ;     2. Redistributions in binary form must reproduce the above copyright notice, this 
      +                          list
    45                           ;        of conditions and the following disclaimer in the documentation and/or other
    46                           ;        materials provided with the distribution.
    47                           ; 
    48                           ;     3. Microchip's name may not be used to endorse or promote products derived from th
      +                          is
    49                           ;        software without specific prior written permission.
    50                           ; 
    51                           ; THIS SOFTWARE IS PROVIDED BY MICROCHIP "AS IS" AND ANY EXPRESS OR IMPLIED WARRANTIES,
    52                           ; INCLUDING, BUT NOT LIMITED TO, THE IMPLIED WARRANTIES OF MERCHANTABILITY AND FITNESS F
      +                          OR
    53                           ; PURPOSE ARE DISCLAIMED.  IN NO EVENT SHALL MICROCHIP BE LIABLE FOR ANY DIRECT, INDIREC
      +                          T,
    54                           ; INCIDENTAL, SPECIAL, EXEMPLARY, OR CONSEQUENTIAL DAMAGES (INCLUDING BUT NOT LIMITED TO
    55                           ; PROCUREMENT OF SUBSTITUTE GOODS OR SERVICES; LOSS OF USE, DATA OR PROFITS; OR BUSINESS
    56                           ; INTERRUPTION) HOWSOEVER CAUSED AND ON ANY THEORY OF LIABILITY, WHETHER IN CONTRACT, ST
      +                          RICT
    57                           ; LIABILITY, OR TORT (INCLUDING NEGLIGENCE OR OTHERWISE) ARISING IN ANY WAY OUT OF THE U
      +                          SE OF
    58                           ; THIS SOFTWARE, EVEN IF ADVISED OF THE POSSIBILITY OF SUCH DAMAGE.
    59                           ; 
    60                           ; 
    61                           ; Code-generator required, PIC18F26K83 Definitions
    62                           ; 
    63                           ; SFR Addresses
    64  0000                     _RXB1D7	set	14333
    65  0000                     _RXB1D6	set	14332
    66  0000                     _RXB1D5	set	14331
    67  0000                     _RXB1D4	set	14330
    68  0000                     _RXB1D3	set	14329
    69  0000                     _RXB1D2	set	14328
    70  0000                     _RXB1D1	set	14327
    71  0000                     _RXB1D0	set	14326
    72  0000                     _RXB1DLC	set	14325
    73  0000                     _RXB1SIDH	set	14321
    74  0000                     _RXB1EIDL	set	14324
    75  0000                     _RXB1EIDH	set	14323
    76  0000                     _RXB1SIDL	set	14322
    77  0000                     _RXB1CONbits	set	14320
    78  0000                     _TXB2D7	set	14285
    79  0000                     _TXB2D6	set	14284
    80  0000                     _TXB2D5	set	14283
    81  0000                     _TXB2D4	set	14282
    82  0000                     _TXB2D3	set	14281
    83  0000                     _TXB2D2	set	14280
    84  0000                     _TXB2D1	set	14279
    85  0000                     _TXB2D0	set	14278
    86  0000                     _TXB2DLC	set	14277
    87  0000                     _TXB2SIDL	set	14274
    88  0000                     _TXB2SIDH	set	14273
    89  0000                     _TXB2EIDL	set	14276
    90  0000                     _TXB2EIDH	set	14275
    91  0000                     _TXB2CONbits	set	14272
    92  0000                     _TXB1D7	set	14301
    93  0000                     _TXB1D6	set	14300
    94  0000                     _TXB1D5	set	14299
    95  0000                     _TXB1D4	set	14298
    96  0000                     _TXB1D3	set	14297
    97  0000                     _TXB1D2	set	14296
    98  0000                     _TXB1D1	set	14295
    99  0000                     _TXB1D0	set	14294
   100  0000                     _TXB1DLC	set	14293
   101  0000                     _TXB1SIDL	set	14290
   102  0000                     _TXB1SIDH	set	14289
   103  0000                     _TXB1EIDL	set	14292
   104  0000                     _TXB1EIDH	set	14291
   105  0000                     _TXB1CONbits	set	14288
   106  0000                     _TXB0D7	set	14317
   107  0000                     _TXB0D6	set	14316
   108  0000                     _TXB0D5	set	14315
   109  0000                     _TXB0D4	set	14314
   110  0000                     _TXB0D3	set	14313
   111  0000                     _TXB0D2	set	14312
   112  0000                     _TXB0D1	set	14311
   113  0000                     _TXB0D0	set	14310
   114  0000                     _TXB0DLC	set	14309
   115  0000                     _TXB0SIDL	set	14306
   116  0000                     _TXB0SIDH	set	14305
   117  0000                     _TXB0EIDL	set	14308
   118  0000                     _TXB0EIDH	set	14307
   119  0000                     _TXB0CONbits	set	14304
   120  0000                     _BRGCON3	set	14085
   121  0000                     _BRGCON2	set	14084
   122  0000                     _BRGCON1	set	14083
   123  0000                     _RXF5SIDL	set	14261
   124  0000                     _RXF5SIDH	set	14260
   125  0000                     _RXF5EIDL	set	14263
   126  0000                     _RXF5EIDH	set	14262
   127  0000                     _RXF4SIDL	set	14257
   128  0000                     _RXF4SIDH	set	14256
   129  0000                     _RXF4EIDL	set	14259
   130  0000                     _RXF4EIDH	set	14258
   131  0000                     _RXF3SIDL	set	14253
   132  0000                     _RXF3SIDH	set	14252
   133  0000                     _RXF3EIDL	set	14255
   134  0000                     _RXF3EIDH	set	14254
   135  0000                     _RXF2SIDL	set	14249
   136  0000                     _RXF2SIDH	set	14248
   137  0000                     _RXF2EIDL	set	14251
   138  0000                     _RXF2EIDH	set	14250
   139  0000                     _RXF1SIDL	set	14245
   140  0000                     _RXF1SIDH	set	14244
   141  0000                     _RXF1EIDL	set	14247
   142  0000                     _RXF1EIDH	set	14246
   143  0000                     _RXF0SIDL	set	14241
   144  0000                     _RXF0SIDH	set	14240
   145  0000                     _RXF0EIDL	set	14243
   146  0000                     _RXF0EIDH	set	14242
   147  0000                     _RXM1SIDL	set	14269
   148  0000                     _RXM1SIDH	set	14268
   149  0000                     _RXM1EIDL	set	14271
   150  0000                     _RXM1EIDH	set	14270
   151  0000                     _RXM0SIDL	set	14265
   152  0000                     _RXM0SIDH	set	14264
   153  0000                     _RXM0EIDL	set	14267
   154  0000                     _RXM0EIDH	set	14266
   155  0000                     _CIOCON	set	14080
   156  0000                     _PIE5bits	set	14741
   157  0000                     _PIR5bits	set	14757
   158  0000                     _PMD7	set	14791
   159  0000                     _PMD6	set	14790
   160  0000                     _PMD5	set	14789
   161  0000                     _PMD4	set	14788
   162  0000                     _PMD3	set	14787
   163  0000                     _PMD2	set	14786
   164  0000                     _PMD1	set	14785
   165  0000                     _PMD0	set	14784
   166  0000                     _OSCTUNE	set	14814
   167  0000                     _OSCFRQ	set	14815
   168  0000                     _OSCEN	set	14813
   169  0000                     _OSCCON3	set	14811
   170  0000                     _OSCCON1	set	14809
   171  0000                     _RB4PPS	set	14860
   172  0000                     _CANRXPPS	set	15085
   173  0000                     _INLVLE	set	14980
   174  0000                     _INLVLC	set	14948
   175  0000                     _INLVLB	set	14932
   176  0000                     _INLVLA	set	14916
   177  0000                     _SLRCONC	set	14947
   178  0000                     _SLRCONB	set	14931
   179  0000                     _SLRCONA	set	14915
   180  0000                     _ODCONC	set	14946
   181  0000                     _ODCONB	set	14930
   182  0000                     _ODCONA	set	14914
   183  0000                     _WPUC	set	14945
   184  0000                     _WPUA	set	14913
   185  0000                     _WPUB	set	14929
   186  0000                     _WPUE	set	14977
   187  0000                     _ANSELA	set	14912
   188  0000                     _ANSELB	set	14928
   189  0000                     _ANSELC	set	14944
   190  0000                     _ADCON1bits	set	16121
   191  0000                     _ADERRL	set	16098
   192  0000                     _ADERRH	set	16099
   193  0000                     _ADPREVL	set	16109
   194  0000                     _ADPREVH	set	16110
   195  0000                     _ADFLTRL	set	16102
   196  0000                     _ADFLTRH	set	16103
   197  0000                     _ADSTATbits	set	16124
   198  0000                     _ADACCL	set	16104
   199  0000                     _ADACCH	set	16105
   200  0000                     _ADCON2bits	set	16122
   201  0000                     _ADCNT	set	16107
   202  0000                     _ADCON3bits	set	16123
   203  0000                     _ADRESL	set	16111
   204  0000                     _ADRESH	set	16112
   205  0000                     _ADCON0bits	set	16120
   206  0000                     _ADCON0	set	16120
   207  0000                     _ADCLK	set	16127
   208  0000                     _ADACT	set	16126
   209  0000                     _ADREF	set	16125
   210  0000                     _ADSTAT	set	16124
   211  0000                     _ADCON3	set	16123
   212  0000                     _ADCON2	set	16122
   213  0000                     _ADCON1	set	16121
   214  0000                     _ADPREH	set	16119
   215  0000                     _ADPREL	set	16118
   216  0000                     _ADCAP	set	16117
   217  0000                     _ADACQH	set	16116
   218  0000                     _ADACQL	set	16115
   219  0000                     _ADPCH	set	16113
   220  0000                     _ADRPT	set	16108
   221  0000                     _ADACCU	set	16106
   222  0000                     _ADSTPTH	set	16101
   223  0000                     _ADSTPTL	set	16100
   224  0000                     _ADUTHH	set	16097
   225  0000                     _ADUTHL	set	16096
   226  0000                     _ADLTHH	set	16095
   227  0000                     _ADLTHL	set	16094
   228  0000                     _INTCON0bits	set	16338
   229  0000                     _COMSTATbits	set	16272
   230  0000                     _RXB0D7	set	16269
   231  0000                     _RXB0D6	set	16268
   232  0000                     _RXB0D5	set	16267
   233  0000                     _RXB0D4	set	16266
   234  0000                     _RXB0D3	set	16265
   235  0000                     _RXB0D2	set	16264
   236  0000                     _RXB0D1	set	16263
   237  0000                     _RXB0D0	set	16262
   238  0000                     _RXB0DLC	set	16261
   239  0000                     _RXB0SIDH	set	16257
   240  0000                     _RXB0EIDL	set	16260
   241  0000                     _RXB0EIDH	set	16259
   242  0000                     _RXB0SIDL	set	16258
   243  0000                     _RXB0CONbits	set	16256
   244  0000                     _ECANCON	set	16273
   245  0000                     _CANSTAT	set	16270
   246  0000                     _CANCON	set	16271
   247  0000                     _TRISC	set	16324
   248  0000                     _TRISB	set	16323
   249  0000                     _TRISA	set	16322
   250  0000                     _LATC	set	16316
   251  0000                     _LATB	set	16315
   252  0000                     _LATA	set	16314
   253                           
   254                           ; #config settings
   255                           
   256                           	psect	cinit
   257  00784E                     __pcinit:
   258                           	callstack 0
   259  00784E                     start_initialization:
   260                           	callstack 0
   261  00784E                     __initialization:
   262                           	callstack 0
   263                           
   264                           ; Clear objects allocated to COMRAM (2 bytes)
   265  00784E  6A30               	clrf	(__pbssCOMRAM+1)& (0+255),c
   266  007850  6A2F               	clrf	__pbssCOMRAM& (0+255),c
   267                           
   268                           ;
   269                           ; Setup IVTBASE
   270                           ;
   271  007852  0E08               	movlw	(ivt0x8_base shr 0)& (0+255)
   272  007854  6ED5               	movwf	213,c
   273  007856  0E00               	movlw	(ivt0x8_base shr (0+8))& (0+255)
   274  007858  6ED6               	movwf	214,c
   275  00785A  0E00               	movlw	(ivt0x8_base shr (0+16))& (0+255)
   276  00785C  6ED7               	movwf	215,c
   277  00785E                     end_of_initialization:
   278                           	callstack 0
   279  00785E                     __end_of__initialization:
   280                           	callstack 0
   281  00785E  0E00               	movlw	low (__Lmediumconst shr (0+16))
   282  007860  6EF8               	movwf	tblptru,c
   283  007862  0100               	movlb	0
   284  007864  EFDC  F03C         	goto	_main	;jump to C main() function
   285                           
   286                           	psect	bssCOMRAM
   287  00002F                     __pbssCOMRAM:
   288                           	callstack 0
   289  00002F                     _WakeUpInterruptHandler:
   290                           	callstack 0
   291  00002F                     	ds	2
   292                           
   293                           	psect	cstackCOMRAM
   294  000001                     __pcstackCOMRAM:
   295                           	callstack 0
   296  000001                     ?_ADCC_GetSingleConversion:
   297                           	callstack 0
   298  000001                     ECAN_SetWakeUpInterruptHandler@handler:
   299                           	callstack 0
   300  000001                     convertCANid2Reg@tempPassedInID:
   301                           	callstack 0
   302                           
   303                           ; 4 bytes @ 0x0
   304  000001                     	ds	2
   305  000003                     ??_ECAN_Initialize:
   306  000003                     ??_ADCC_GetSingleConversion:
   307                           
   308                           ; 1 bytes @ 0x2
   309  000003                     	ds	1
   310  000004                     
   311                           ; 1 bytes @ 0x3
   312  000004                     	ds	1
   313  000005                     convertCANid2Reg@canIdType:
   314                           	callstack 0
   315  000005                     ADCC_GetSingleConversion@channel:
   316                           	callstack 0
   317                           
   318                           ; 1 bytes @ 0x4
   319  000005                     	ds	1
   320  000006                     convertCANid2Reg@passedInEIDH:
   321                           	callstack 0
   322                           
   323                           ; 2 bytes @ 0x5
   324  000006                     	ds	2
   325  000008                     convertCANid2Reg@passedInEIDL:
   326                           	callstack 0
   327                           
   328                           ; 2 bytes @ 0x7
   329  000008                     	ds	2
   330  00000A                     convertCANid2Reg@passedInSIDH:
   331                           	callstack 0
   332                           
   333                           ; 2 bytes @ 0x9
   334  00000A                     	ds	2
   335  00000C                     convertCANid2Reg@passedInSIDL:
   336                           	callstack 0
   337                           
   338                           ; 2 bytes @ 0xB
   339  00000C                     	ds	2
   340  00000E                     ??_convertCANid2Reg:
   341                           
   342                           ; 1 bytes @ 0xD
   343  00000E                     	ds	4
   344  000012                     convertCANid2Reg@wipSIDL:
   345                           	callstack 0
   346                           
   347                           ; 1 bytes @ 0x11
   348  000012                     	ds	1
   349  000013                     CAN_transmit@tempCanMsg:
   350                           	callstack 0
   351                           
   352                           ; 2 bytes @ 0x12
   353  000013                     	ds	2
   354  000015                     CAN_transmit@tempEIDH:
   355                           	callstack 0
   356                           
   357                           ; 1 bytes @ 0x14
   358  000015                     	ds	1
   359  000016                     CAN_transmit@tempEIDL:
   360                           	callstack 0
   361                           
   362                           ; 1 bytes @ 0x15
   363  000016                     	ds	1
   364  000017                     CAN_transmit@tempSIDH:
   365                           	callstack 0
   366                           
   367                           ; 1 bytes @ 0x16
   368  000017                     	ds	1
   369  000018                     CAN_transmit@tempSIDL:
   370                           	callstack 0
   371                           
   372                           ; 1 bytes @ 0x17
   373  000018                     	ds	1
   374  000019                     ??_main:
   375                           
   376                           ; 1 bytes @ 0x18
   377  000019                     	ds	2
   378  00001B                     main@current_analog_1:
   379                           	callstack 0
   380                           
   381                           ; 2 bytes @ 0x1A
   382  00001B                     	ds	2
   383  00001D                     main@current_analog_2:
   384                           	callstack 0
   385                           
   386                           ; 2 bytes @ 0x1C
   387  00001D                     	ds	2
   388  00001F                     main@current:
   389                           	callstack 0
   390                           
   391                           ; 2 bytes @ 0x1E
   392  00001F                     	ds	2
   393  000021                     main@CanCurrentData:
   394                           	callstack 0
   395                           
   396                           ; 14 bytes @ 0x20
   397  000021                     	ds	14
   398                           
   399 ;;
   400 ;;Main: autosize = 0, tempsize = 2, incstack = 0, save=0
   401 ;;
   402 ;; *************** function _main *****************
   403 ;; Defined at:
   404 ;;		line 20 in file "main.c"
   405 ;; Parameters:    Size  Location     Type
   406 ;;		None
   407 ;; Auto vars:     Size  Location     Type
   408 ;;  current         2   30[COMRAM] unsigned short 
   409 ;;  current_anal    2   28[COMRAM] unsigned short 
   410 ;;  current_anal    2   26[COMRAM] unsigned short 
   411 ;;  CanCurrentDa   14   32[COMRAM] struct .
   412 ;; Return value:  Size  Location     Type
   413 ;;                  1    wreg      void 
   414 ;; Registers used:
   415 ;;		wreg, fsr2l, fsr2h, status,2, status,0, cstack
   416 ;; Tracked objects:
   417 ;;		On entry : 0/0
   418 ;;		On exit  : 0/0
   419 ;;		Unchanged: 0/0
   420 ;; Data sizes:     COMRAM   BANK0   BANK1   BANK2   BANK3   BANK4   BANK5   BANK6   BANK7   BANK8   BANK9  BANK10  BANK1
      +1  BANK12  BANK13  BANK14  BANK15
   421 ;;      Params:         0       0       0       0       0       0       0       0       0       0       0       0       
      +0       0       0       0       0
   422 ;;      Locals:        20       0       0       0       0       0       0       0       0       0       0       0       
      +0       0       0       0       0
   423 ;;      Temps:          2       0       0       0       0       0       0       0       0       0       0       0       
      +0       0       0       0       0
   424 ;;      Totals:        22       0       0       0       0       0       0       0       0       0       0       0       
      +0       0       0       0       0
   425 ;;Total ram usage:       22 bytes
   426 ;; Hardware stack levels required when called: 6
   427 ;; This function calls:
   428 ;;		_ADCC_GetSingleConversion
   429 ;;		_CAN_transmit
   430 ;;		_SYSTEM_Initialize
   431 ;; This function is called by:
   432 ;;		Startup code after reset
   433 ;; This function uses a non-reentrant model
   434 ;;
   435                           
   436                           	psect	text0
   437  0079B8                     __ptext0:
   438                           	callstack 0
   439  0079B8                     _main:
   440                           	callstack 25
   441  0079B8                     
   442                           ;main.c: 23:     SYSTEM_Initialize();
   443  0079B8  EC1A  F03C         	call	_SYSTEM_Initialize	;wreg free
   444  0079BC                     
   445                           ;main.c: 25:     uCAN_MSG CanCurrentData;;main.c: 26:     CanCurrentData.frame.idType = 
      +                          1;
   446  0079BC  0E01               	movlw	1
   447  0079BE  6E21               	movwf	main@CanCurrentData^0,c
   448  0079C0                     
   449                           ;main.c: 27:     CanCurrentData.frame.id = PEI_CURRENT;
   450  0079C0  0E87               	movlw	135
   451  0079C2  6E22               	movwf	(main@CanCurrentData+1)^0,c
   452  0079C4  0E03               	movlw	3
   453  0079C6  6E23               	movwf	(main@CanCurrentData+2)^0,c
   454  0079C8  0E00               	movlw	0
   455  0079CA  6E24               	movwf	(main@CanCurrentData+3)^0,c
   456  0079CC  0E00               	movlw	0
   457  0079CE  6E25               	movwf	(main@CanCurrentData+4)^0,c
   458  0079D0                     
   459                           ;main.c: 28:     CanCurrentData.frame.dlc = 0x02;
   460  0079D0  0E02               	movlw	2
   461  0079D2  6E26               	movwf	(main@CanCurrentData+5)^0,c
   462  0079D4                     l1921:
   463                           
   464                           ;main.c: 31:     {;main.c: 34:         uint16_t current_analog_1 = ADCC_GetSingleConvers
      +                          ion(CURRENT_ANALOG_1);
   465  0079D4  0E10               	movlw	16
   466  0079D6  EC68  F03C         	call	_ADCC_GetSingleConversion
   467  0079DA  C001  F01B         	movff	?_ADCC_GetSingleConversion,main@current_analog_1
   468  0079DE  C002  F01C         	movff	?_ADCC_GetSingleConversion+1,main@current_analog_1+1
   469  0079E2                     
   470                           ;main.c: 35:         uint16_t current_analog_2 = ADCC_GetSingleConversion(CURRENT_ANALOG
      +                          _2);
   471  0079E2  0E13               	movlw	19
   472  0079E4  EC68  F03C         	call	_ADCC_GetSingleConversion
   473  0079E8  C001  F01D         	movff	?_ADCC_GetSingleConversion,main@current_analog_2
   474  0079EC  C002  F01E         	movff	?_ADCC_GetSingleConversion+1,main@current_analog_2+1
   475  0079F0                     
   476                           ;main.c: 38:         uint16_t current = current_analog_2 - current_analog_1;
   477  0079F0  501B               	movf	main@current_analog_1^0,w,c
   478  0079F2  5C1D               	subwf	main@current_analog_2^0,w,c
   479  0079F4  6E1F               	movwf	main@current^0,c
   480  0079F6  501C               	movf	(main@current_analog_1+1)^0,w,c
   481  0079F8  581E               	subwfb	(main@current_analog_2+1)^0,w,c
   482  0079FA  6E20               	movwf	(main@current+1)^0,c
   483  0079FC                     
   484                           ;main.c: 41:         CanCurrentData.frame.data0 = current >> 8;
   485  0079FC  5020               	movf	(main@current+1)^0,w,c
   486  0079FE  6E27               	movwf	(main@CanCurrentData+6)^0,c
   487  007A00                     
   488                           ;main.c: 42:         CanCurrentData.frame.data1 = current & 0xFF;
   489  007A00  C01F  F028         	movff	main@current,main@CanCurrentData+7
   490  007A04                     
   491                           ;main.c: 43:         CAN_transmit(&CanCurrentData);
   492  007A04  0E21               	movlw	low main@CanCurrentData
   493  007A06  6E13               	movwf	CAN_transmit@tempCanMsg^0,c
   494  007A08  0E00               	movlw	high main@CanCurrentData
   495  007A0A  6E14               	movwf	(CAN_transmit@tempCanMsg+1)^0,c
   496  007A0C  EC53  F03E         	call	_CAN_transmit	;wreg free
   497  007A10                     
   498                           ;main.c: 46:         _delay((unsigned long)((500)*(64000000/4000.0)));
   499  007A10  0E29               	movlw	41
   500  007A12  6E1A               	movwf	(??_main+1)^0,c
   501  007A14  0E96               	movlw	150
   502  007A16  6E19               	movwf	??_main^0,c
   503  007A18  0E7F               	movlw	127
   504  007A1A                     u347:
   505  007A1A  2EE8               	decfsz	wreg,f,c
   506  007A1C  D7FE               	bra	u347
   507  007A1E  2E19               	decfsz	??_main^0,f,c
   508  007A20  D7FC               	bra	u347
   509  007A22  2E1A               	decfsz	(??_main+1)^0,f,c
   510  007A24  D7FA               	bra	u347
   511  007A26  F000               	nop	
   512  007A28  EFEA  F03C         	goto	l1921
   513  007A2C  EFFE  F03F         	goto	start
   514  007A30                     __end_of_main:
   515                           	callstack 0
   516                           
   517 ;; *************** function _SYSTEM_Initialize *****************
   518 ;; Defined at:
   519 ;;		line 50 in file "mcc_generated_files/mcc.c"
   520 ;; Parameters:    Size  Location     Type
   521 ;;		None
   522 ;; Auto vars:     Size  Location     Type
   523 ;;		None
   524 ;; Return value:  Size  Location     Type
   525 ;;                  1    wreg      void 
   526 ;; Registers used:
   527 ;;		wreg, status,2, status,0, cstack
   528 ;; Tracked objects:
   529 ;;		On entry : 0/0
   530 ;;		On exit  : 0/0
   531 ;;		Unchanged: 0/0
   532 ;; Data sizes:     COMRAM   BANK0   BANK1   BANK2   BANK3   BANK4   BANK5   BANK6   BANK7   BANK8   BANK9  BANK10  BANK1
      +1  BANK12  BANK13  BANK14  BANK15
   533 ;;      Params:         0       0       0       0       0       0       0       0       0       0       0       0       
      +0       0       0       0       0
   534 ;;      Locals:         0       0       0       0       0       0       0       0       0       0       0       0       
      +0       0       0       0       0
   535 ;;      Temps:          0       0       0       0       0       0       0       0       0       0       0       0       
      +0       0       0       0       0
   536 ;;      Totals:         0       0       0       0       0       0       0       0       0       0       0       0       
      +0       0       0       0       0
   537 ;;Total ram usage:        0 bytes
   538 ;; Hardware stack levels used: 1
   539 ;; Hardware stack levels required when called: 5
   540 ;; This function calls:
   541 ;;		_ADCC_Initialize
   542 ;;		_ECAN_Initialize
   543 ;;		_INTERRUPT_Initialize
   544 ;;		_OSCILLATOR_Initialize
   545 ;;		_PIN_MANAGER_Initialize
   546 ;;		_PMD_Initialize
   547 ;; This function is called by:
   548 ;;		_main
   549 ;; This function uses a non-reentrant model
   550 ;;
   551                           
   552                           	psect	text1
   553  007834                     __ptext1:
   554                           	callstack 0
   555  007834                     _SYSTEM_Initialize:
   556                           	callstack 25
   557  007834                     
   558                           ;mcc_generated_files/mcc.c: 52:     INTERRUPT_Initialize();
   559  007834  EC07  F03C         	call	_INTERRUPT_Initialize	;wreg free
   560  007838                     
   561                           ;mcc_generated_files/mcc.c: 53:     PMD_Initialize();
   562  007838  EC56  F03C         	call	_PMD_Initialize	;wreg free
   563  00783C                     
   564                           ;mcc_generated_files/mcc.c: 54:     PIN_MANAGER_Initialize();
   565  00783C  EC81  F03C         	call	_PIN_MANAGER_Initialize	;wreg free
   566  007840                     
   567                           ;mcc_generated_files/mcc.c: 55:     OSCILLATOR_Initialize();
   568  007840  EC0E  F03C         	call	_OSCILLATOR_Initialize	;wreg free
   569  007844                     
   570                           ;mcc_generated_files/mcc.c: 56:     ADCC_Initialize();
   571  007844  ECAE  F03C         	call	_ADCC_Initialize	;wreg free
   572  007848                     
   573                           ;mcc_generated_files/mcc.c: 57:     ECAN_Initialize();
   574  007848  EC18  F03D         	call	_ECAN_Initialize	;wreg free
   575  00784C  0012               	return		;funcret
   576  00784E                     __end_of_SYSTEM_Initialize:
   577                           	callstack 0
   578                           
   579 ;; *************** function _PMD_Initialize *****************
   580 ;; Defined at:
   581 ;;		line 74 in file "mcc_generated_files/mcc.c"
   582 ;; Parameters:    Size  Location     Type
   583 ;;		None
   584 ;; Auto vars:     Size  Location     Type
   585 ;;		None
   586 ;; Return value:  Size  Location     Type
   587 ;;                  1    wreg      void 
   588 ;; Registers used:
   589 ;;		wreg, status,2
   590 ;; Tracked objects:
   591 ;;		On entry : 0/0
   592 ;;		On exit  : 0/0
   593 ;;		Unchanged: 0/0
   594 ;; Data sizes:     COMRAM   BANK0   BANK1   BANK2   BANK3   BANK4   BANK5   BANK6   BANK7   BANK8   BANK9  BANK10  BANK1
      +1  BANK12  BANK13  BANK14  BANK15
   595 ;;      Params:         0       0       0       0       0       0       0       0       0       0       0       0       
      +0       0       0       0       0
   596 ;;      Locals:         0       0       0       0       0       0       0       0       0       0       0       0       
      +0       0       0       0       0
   597 ;;      Temps:          0       0       0       0       0       0       0       0       0       0       0       0       
      +0       0       0       0       0
   598 ;;      Totals:         0       0       0       0       0       0       0       0       0       0       0       0       
      +0       0       0       0       0
   599 ;;Total ram usage:        0 bytes
   600 ;; Hardware stack levels used: 1
   601 ;; Hardware stack levels required when called: 3
   602 ;; This function calls:
   603 ;;		Nothing
   604 ;; This function is called by:
   605 ;;		_SYSTEM_Initialize
   606 ;; This function uses a non-reentrant model
   607 ;;
   608                           
   609                           	psect	text2
   610  0078AC                     __ptext2:
   611                           	callstack 0
   612  0078AC                     _PMD_Initialize:
   613                           	callstack 26
   614  0078AC                     
   615                           ;mcc_generated_files/mcc.c: 77:     PMD0 = 0x00;
   616  0078AC  0E00               	movlw	0
   617  0078AE  0139               	movlb	57	; () banked
   618  0078B0  6FC0               	movwf	192,b	;volatile
   619                           
   620                           ;mcc_generated_files/mcc.c: 79:     PMD1 = 0x00;
   621  0078B2  0E00               	movlw	0
   622  0078B4  6FC1               	movwf	193,b	;volatile
   623                           
   624                           ;mcc_generated_files/mcc.c: 81:     PMD2 = 0x00;
   625  0078B6  0E00               	movlw	0
   626  0078B8  6FC2               	movwf	194,b	;volatile
   627                           
   628                           ;mcc_generated_files/mcc.c: 83:     PMD3 = 0x00;
   629  0078BA  0E00               	movlw	0
   630  0078BC  6FC3               	movwf	195,b	;volatile
   631                           
   632                           ;mcc_generated_files/mcc.c: 85:     PMD4 = 0x00;
   633  0078BE  0E00               	movlw	0
   634  0078C0  6FC4               	movwf	196,b	;volatile
   635                           
   636                           ;mcc_generated_files/mcc.c: 87:     PMD5 = 0x00;
   637  0078C2  0E00               	movlw	0
   638  0078C4  6FC5               	movwf	197,b	;volatile
   639                           
   640                           ;mcc_generated_files/mcc.c: 89:     PMD6 = 0x00;
   641  0078C6  0E00               	movlw	0
   642  0078C8  6FC6               	movwf	198,b	;volatile
   643                           
   644                           ;mcc_generated_files/mcc.c: 91:     PMD7 = 0x00;
   645  0078CA  0E00               	movlw	0
   646  0078CC  6FC7               	movwf	199,b	;volatile
   647  0078CE                     
   648                           ; BSR set to: 57
   649  0078CE  0012               	return		;funcret
   650  0078D0                     __end_of_PMD_Initialize:
   651                           	callstack 0
   652                           
   653 ;; *************** function _PIN_MANAGER_Initialize *****************
   654 ;; Defined at:
   655 ;;		line 55 in file "mcc_generated_files/pin_manager.c"
   656 ;; Parameters:    Size  Location     Type
   657 ;;		None
   658 ;; Auto vars:     Size  Location     Type
   659 ;;		None
   660 ;; Return value:  Size  Location     Type
   661 ;;                  1    wreg      void 
   662 ;; Registers used:
   663 ;;		wreg, status,2
   664 ;; Tracked objects:
   665 ;;		On entry : 0/0
   666 ;;		On exit  : 0/0
   667 ;;		Unchanged: 0/0
   668 ;; Data sizes:     COMRAM   BANK0   BANK1   BANK2   BANK3   BANK4   BANK5   BANK6   BANK7   BANK8   BANK9  BANK10  BANK1
      +1  BANK12  BANK13  BANK14  BANK15
   669 ;;      Params:         0       0       0       0       0       0       0       0       0       0       0       0       
      +0       0       0       0       0
   670 ;;      Locals:         0       0       0       0       0       0       0       0       0       0       0       0       
      +0       0       0       0       0
   671 ;;      Temps:          0       0       0       0       0       0       0       0       0       0       0       0       
      +0       0       0       0       0
   672 ;;      Totals:         0       0       0       0       0       0       0       0       0       0       0       0       
      +0       0       0       0       0
   673 ;;Total ram usage:        0 bytes
   674 ;; Hardware stack levels used: 1
   675 ;; Hardware stack levels required when called: 3
   676 ;; This function calls:
   677 ;;		Nothing
   678 ;; This function is called by:
   679 ;;		_SYSTEM_Initialize
   680 ;; This function uses a non-reentrant model
   681 ;;
   682                           
   683                           	psect	text3
   684  007902                     __ptext3:
   685                           	callstack 0
   686  007902                     _PIN_MANAGER_Initialize:
   687                           	callstack 26
   688  007902                     
   689                           ;mcc_generated_files/pin_manager.c: 60:     LATA = 0x00;
   690  007902  0E00               	movlw	0
   691  007904  6EBA               	movwf	186,c	;volatile
   692                           
   693                           ;mcc_generated_files/pin_manager.c: 61:     LATB = 0x00;
   694  007906  0E00               	movlw	0
   695  007908  6EBB               	movwf	187,c	;volatile
   696                           
   697                           ;mcc_generated_files/pin_manager.c: 62:     LATC = 0x00;
   698  00790A  0E00               	movlw	0
   699  00790C  6EBC               	movwf	188,c	;volatile
   700                           
   701                           ;mcc_generated_files/pin_manager.c: 67:     TRISA = 0xBF;
   702  00790E  0EBF               	movlw	191
   703  007910  6EC2               	movwf	194,c	;volatile
   704                           
   705                           ;mcc_generated_files/pin_manager.c: 68:     TRISB = 0xEF;
   706  007912  0EEF               	movlw	239
   707  007914  6EC3               	movwf	195,c	;volatile
   708  007916                     
   709                           ;mcc_generated_files/pin_manager.c: 69:     TRISC = 0xFF;
   710  007916  68C4               	setf	196,c	;volatile
   711                           
   712                           ;mcc_generated_files/pin_manager.c: 74:     ANSELC = 0xF9;
   713  007918  0EF9               	movlw	249
   714  00791A  013A               	movlb	58	; () banked
   715  00791C  6F60               	movwf	96,b	;volatile
   716                           
   717                           ;mcc_generated_files/pin_manager.c: 75:     ANSELB = 0x30;
   718  00791E  0E30               	movlw	48
   719  007920  6F50               	movwf	80,b	;volatile
   720                           
   721                           ;mcc_generated_files/pin_manager.c: 76:     ANSELA = 0x40;
   722  007922  0E40               	movlw	64
   723  007924  6F40               	movwf	64,b	;volatile
   724                           
   725                           ;mcc_generated_files/pin_manager.c: 81:     WPUE = 0x00;
   726  007926  0E00               	movlw	0
   727  007928  6F81               	movwf	129,b	;volatile
   728                           
   729                           ;mcc_generated_files/pin_manager.c: 82:     WPUB = 0x00;
   730  00792A  0E00               	movlw	0
   731  00792C  6F51               	movwf	81,b	;volatile
   732                           
   733                           ;mcc_generated_files/pin_manager.c: 83:     WPUA = 0x00;
   734  00792E  0E00               	movlw	0
   735  007930  6F41               	movwf	65,b	;volatile
   736                           
   737                           ;mcc_generated_files/pin_manager.c: 84:     WPUC = 0x00;
   738  007932  0E00               	movlw	0
   739  007934  6F61               	movwf	97,b	;volatile
   740                           
   741                           ;mcc_generated_files/pin_manager.c: 89:     ODCONA = 0x00;
   742  007936  0E00               	movlw	0
   743  007938  6F42               	movwf	66,b	;volatile
   744                           
   745                           ;mcc_generated_files/pin_manager.c: 90:     ODCONB = 0x00;
   746  00793A  0E00               	movlw	0
   747  00793C  6F52               	movwf	82,b	;volatile
   748                           
   749                           ;mcc_generated_files/pin_manager.c: 91:     ODCONC = 0x00;
   750  00793E  0E00               	movlw	0
   751  007940  6F62               	movwf	98,b	;volatile
   752  007942                     
   753                           ; BSR set to: 58
   754                           ;mcc_generated_files/pin_manager.c: 96:     SLRCONA = 0xFF;
   755  007942  6943               	setf	67,b	;volatile
   756  007944                     
   757                           ; BSR set to: 58
   758                           ;mcc_generated_files/pin_manager.c: 97:     SLRCONB = 0xFF;
   759  007944  6953               	setf	83,b	;volatile
   760  007946                     
   761                           ; BSR set to: 58
   762                           ;mcc_generated_files/pin_manager.c: 98:     SLRCONC = 0xFF;
   763  007946  6963               	setf	99,b	;volatile
   764  007948                     
   765                           ; BSR set to: 58
   766                           ;mcc_generated_files/pin_manager.c: 103:     INLVLA = 0xFF;
   767  007948  6944               	setf	68,b	;volatile
   768  00794A                     
   769                           ; BSR set to: 58
   770                           ;mcc_generated_files/pin_manager.c: 104:     INLVLB = 0xFF;
   771  00794A  6954               	setf	84,b	;volatile
   772  00794C                     
   773                           ; BSR set to: 58
   774                           ;mcc_generated_files/pin_manager.c: 105:     INLVLC = 0xFF;
   775  00794C  6964               	setf	100,b	;volatile
   776                           
   777                           ;mcc_generated_files/pin_manager.c: 106:     INLVLE = 0x08;
   778  00794E  0E08               	movlw	8
   779  007950  6F84               	movwf	132,b	;volatile
   780                           
   781                           ;mcc_generated_files/pin_manager.c: 115:     CANRXPPS = 0x0B;
   782  007952  0E0B               	movlw	11
   783  007954  6FED               	movwf	237,b	;volatile
   784                           
   785                           ;mcc_generated_files/pin_manager.c: 116:     RB4PPS = 0x33;
   786  007956  0E33               	movlw	51
   787  007958  6F0C               	movwf	12,b	;volatile
   788  00795A                     
   789                           ; BSR set to: 58
   790  00795A  0012               	return		;funcret
   791  00795C                     __end_of_PIN_MANAGER_Initialize:
   792                           	callstack 0
   793                           
   794 ;; *************** function _OSCILLATOR_Initialize *****************
   795 ;; Defined at:
   796 ;;		line 60 in file "mcc_generated_files/mcc.c"
   797 ;; Parameters:    Size  Location     Type
   798 ;;		None
   799 ;; Auto vars:     Size  Location     Type
   800 ;;		None
   801 ;; Return value:  Size  Location     Type
   802 ;;                  1    wreg      void 
   803 ;; Registers used:
   804 ;;		wreg, status,2
   805 ;; Tracked objects:
   806 ;;		On entry : 0/0
   807 ;;		On exit  : 0/0
   808 ;;		Unchanged: 0/0
   809 ;; Data sizes:     COMRAM   BANK0   BANK1   BANK2   BANK3   BANK4   BANK5   BANK6   BANK7   BANK8   BANK9  BANK10  BANK1
      +1  BANK12  BANK13  BANK14  BANK15
   810 ;;      Params:         0       0       0       0       0       0       0       0       0       0       0       0       
      +0       0       0       0       0
   811 ;;      Locals:         0       0       0       0       0       0       0       0       0       0       0       0       
      +0       0       0       0       0
   812 ;;      Temps:          0       0       0       0       0       0       0       0       0       0       0       0       
      +0       0       0       0       0
   813 ;;      Totals:         0       0       0       0       0       0       0       0       0       0       0       0       
      +0       0       0       0       0
   814 ;;Total ram usage:        0 bytes
   815 ;; Hardware stack levels used: 1
   816 ;; Hardware stack levels required when called: 3
   817 ;; This function calls:
   818 ;;		Nothing
   819 ;; This function is called by:
   820 ;;		_SYSTEM_Initialize
   821 ;; This function uses a non-reentrant model
   822 ;;
   823                           
   824                           	psect	text4
   825  00781C                     __ptext4:
   826                           	callstack 0
   827  00781C                     _OSCILLATOR_Initialize:
   828                           	callstack 26
   829  00781C                     
   830                           ;mcc_generated_files/mcc.c: 63:     OSCCON1 = 0x60;
   831  00781C  0E60               	movlw	96
   832  00781E  0139               	movlb	57	; () banked
   833  007820  6FD9               	movwf	217,b	;volatile
   834                           
   835                           ;mcc_generated_files/mcc.c: 65:     OSCCON3 = 0x00;
   836  007822  0E00               	movlw	0
   837  007824  6FDB               	movwf	219,b	;volatile
   838                           
   839                           ;mcc_generated_files/mcc.c: 67:     OSCEN = 0x00;
   840  007826  0E00               	movlw	0
   841  007828  6FDD               	movwf	221,b	;volatile
   842                           
   843                           ;mcc_generated_files/mcc.c: 69:     OSCFRQ = 0x08;
   844  00782A  0E08               	movlw	8
   845  00782C  6FDF               	movwf	223,b	;volatile
   846                           
   847                           ;mcc_generated_files/mcc.c: 71:     OSCTUNE = 0x00;
   848  00782E  0E00               	movlw	0
   849  007830  6FDE               	movwf	222,b	;volatile
   850  007832                     
   851                           ; BSR set to: 57
   852  007832  0012               	return		;funcret
   853  007834                     __end_of_OSCILLATOR_Initialize:
   854                           	callstack 0
   855                           
   856 ;; *************** function _INTERRUPT_Initialize *****************
   857 ;; Defined at:
   858 ;;		line 52 in file "mcc_generated_files/interrupt_manager.c"
   859 ;; Parameters:    Size  Location     Type
   860 ;;		None
   861 ;; Auto vars:     Size  Location     Type
   862 ;;		None
   863 ;; Return value:  Size  Location     Type
   864 ;;                  1    wreg      void 
   865 ;; Registers used:
   866 ;;		None
   867 ;; Tracked objects:
   868 ;;		On entry : 0/0
   869 ;;		On exit  : 0/0
   870 ;;		Unchanged: 0/0
   871 ;; Data sizes:     COMRAM   BANK0   BANK1   BANK2   BANK3   BANK4   BANK5   BANK6   BANK7   BANK8   BANK9  BANK10  BANK1
      +1  BANK12  BANK13  BANK14  BANK15
   872 ;;      Params:         0       0       0       0       0       0       0       0       0       0       0       0       
      +0       0       0       0       0
   873 ;;      Locals:         0       0       0       0       0       0       0       0       0       0       0       0       
      +0       0       0       0       0
   874 ;;      Temps:          0       0       0       0       0       0       0       0       0       0       0       0       
      +0       0       0       0       0
   875 ;;      Totals:         0       0       0       0       0       0       0       0       0       0       0       0       
      +0       0       0       0       0
   876 ;;Total ram usage:        0 bytes
   877 ;; Hardware stack levels used: 1
   878 ;; Hardware stack levels required when called: 3
   879 ;; This function calls:
   880 ;;		Nothing
   881 ;; This function is called by:
   882 ;;		_SYSTEM_Initialize
   883 ;; This function uses a non-reentrant model
   884 ;;
   885                           
   886                           	psect	text5
   887  00780E                     __ptext5:
   888                           	callstack 0
   889  00780E                     _INTERRUPT_Initialize:
   890                           	callstack 26
   891  00780E                     
   892                           ;mcc_generated_files/interrupt_manager.c: 55:     INTCON0bits.IPEN = 0;
   893  00780E  9AD2               	bcf	210,5,c	;volatile
   894  007810  0012               	return		;funcret
   895  007812                     __end_of_INTERRUPT_Initialize:
   896                           	callstack 0
   897                           
   898 ;; *************** function _ECAN_Initialize *****************
   899 ;; Defined at:
   900 ;;		line 65 in file "mcc_generated_files/ecan.c"
   901 ;; Parameters:    Size  Location     Type
   902 ;;		None
   903 ;; Auto vars:     Size  Location     Type
   904 ;;		None
   905 ;; Return value:  Size  Location     Type
   906 ;;                  1    wreg      void 
   907 ;; Registers used:
   908 ;;		wreg, status,2, status,0, cstack
   909 ;; Tracked objects:
   910 ;;		On entry : 0/0
   911 ;;		On exit  : 0/0
   912 ;;		Unchanged: 0/0
   913 ;; Data sizes:     COMRAM   BANK0   BANK1   BANK2   BANK3   BANK4   BANK5   BANK6   BANK7   BANK8   BANK9  BANK10  BANK1
      +1  BANK12  BANK13  BANK14  BANK15
   914 ;;      Params:         0       0       0       0       0       0       0       0       0       0       0       0       
      +0       0       0       0       0
   915 ;;      Locals:         0       0       0       0       0       0       0       0       0       0       0       0       
      +0       0       0       0       0
   916 ;;      Temps:          1       0       0       0       0       0       0       0       0       0       0       0       
      +0       0       0       0       0
   917 ;;      Totals:         1       0       0       0       0       0       0       0       0       0       0       0       
      +0       0       0       0       0
   918 ;;Total ram usage:        1 bytes
   919 ;; Hardware stack levels used: 1
   920 ;; Hardware stack levels required when called: 4
   921 ;; This function calls:
   922 ;;		_ECAN_SetWakeUpInterruptHandler
   923 ;; This function is called by:
   924 ;;		_SYSTEM_Initialize
   925 ;; This function uses a non-reentrant model
   926 ;;
   927                           
   928                           	psect	text6
   929  007A30                     __ptext6:
   930                           	callstack 0
   931  007A30                     _ECAN_Initialize:
   932                           	callstack 25
   933  007A30                     
   934                           ;mcc_generated_files/ecan.c: 67:     CANCON = 0x80;
   935  007A30  0E80               	movlw	128
   936  007A32  6E8F               	movwf	143,c	;volatile
   937  007A34                     l1739:
   938  007A34  508E               	movf	142,w,c	;volatile
   939  007A36  0BE0               	andlw	224
   940  007A38  0A80               	xorlw	128
   941  007A3A  A4D8               	btfss	status,2,c
   942  007A3C  EF22  F03D         	goto	u251
   943  007A40  EF24  F03D         	goto	u250
   944  007A44                     u251:
   945  007A44  EF1A  F03D         	goto	l1739
   946  007A48                     u250:
   947  007A48                     
   948                           ;mcc_generated_files/ecan.c: 73:     ECANCON = 0x00;
   949  007A48  0E00               	movlw	0
   950  007A4A  6E91               	movwf	145,c	;volatile
   951                           
   952                           ;mcc_generated_files/ecan.c: 78:     CIOCON = 0x00;
   953  007A4C  0E00               	movlw	0
   954  007A4E  0137               	movlb	55	; () banked
   955  007A50  6F00               	movwf	0,b	;volatile
   956                           
   957                           ;mcc_generated_files/ecan.c: 91:     RXM0EIDH = 0x00;
   958  007A52  0E00               	movlw	0
   959  007A54  6FBA               	movwf	186,b	;volatile
   960                           
   961                           ;mcc_generated_files/ecan.c: 92:     RXM0EIDL = 0x00;
   962  007A56  0E00               	movlw	0
   963  007A58  6FBB               	movwf	187,b	;volatile
   964                           
   965                           ;mcc_generated_files/ecan.c: 93:     RXM0SIDH = 0x00;
   966  007A5A  0E00               	movlw	0
   967  007A5C  6FB8               	movwf	184,b	;volatile
   968                           
   969                           ;mcc_generated_files/ecan.c: 94:     RXM0SIDL = 0x00;
   970  007A5E  0E00               	movlw	0
   971  007A60  6FB9               	movwf	185,b	;volatile
   972                           
   973                           ;mcc_generated_files/ecan.c: 95:     RXM1EIDH = 0x00;
   974  007A62  0E00               	movlw	0
   975  007A64  6FBE               	movwf	190,b	;volatile
   976                           
   977                           ;mcc_generated_files/ecan.c: 96:     RXM1EIDL = 0x00;
   978  007A66  0E00               	movlw	0
   979  007A68  6FBF               	movwf	191,b	;volatile
   980                           
   981                           ;mcc_generated_files/ecan.c: 97:     RXM1SIDH = 0x00;
   982  007A6A  0E00               	movlw	0
   983  007A6C  6FBC               	movwf	188,b	;volatile
   984                           
   985                           ;mcc_generated_files/ecan.c: 98:     RXM1SIDL = 0x00;
   986  007A6E  0E00               	movlw	0
   987  007A70  6FBD               	movwf	189,b	;volatile
   988                           
   989                           ;mcc_generated_files/ecan.c: 103:     RXF0EIDH = 0x00;
   990  007A72  0E00               	movlw	0
   991  007A74  6FA2               	movwf	162,b	;volatile
   992                           
   993                           ;mcc_generated_files/ecan.c: 104:     RXF0EIDL = 0x00;
   994  007A76  0E00               	movlw	0
   995  007A78  6FA3               	movwf	163,b	;volatile
   996                           
   997                           ;mcc_generated_files/ecan.c: 105:     RXF0SIDH = 0x00;
   998  007A7A  0E00               	movlw	0
   999  007A7C  6FA0               	movwf	160,b	;volatile
  1000                           
  1001                           ;mcc_generated_files/ecan.c: 106:     RXF0SIDL = 0x00;
  1002  007A7E  0E00               	movlw	0
  1003  007A80  6FA1               	movwf	161,b	;volatile
  1004                           
  1005                           ;mcc_generated_files/ecan.c: 107:     RXF1EIDH = 0x00;
  1006  007A82  0E00               	movlw	0
  1007  007A84  6FA6               	movwf	166,b	;volatile
  1008                           
  1009                           ;mcc_generated_files/ecan.c: 108:     RXF1EIDL = 0x00;
  1010  007A86  0E00               	movlw	0
  1011  007A88  6FA7               	movwf	167,b	;volatile
  1012                           
  1013                           ;mcc_generated_files/ecan.c: 109:     RXF1SIDH = 0x00;
  1014  007A8A  0E00               	movlw	0
  1015  007A8C  6FA4               	movwf	164,b	;volatile
  1016                           
  1017                           ;mcc_generated_files/ecan.c: 110:     RXF1SIDL = 0x00;
  1018  007A8E  0E00               	movlw	0
  1019  007A90  6FA5               	movwf	165,b	;volatile
  1020                           
  1021                           ;mcc_generated_files/ecan.c: 111:     RXF2EIDH = 0x00;
  1022  007A92  0E00               	movlw	0
  1023  007A94  6FAA               	movwf	170,b	;volatile
  1024                           
  1025                           ;mcc_generated_files/ecan.c: 112:     RXF2EIDL = 0x00;
  1026  007A96  0E00               	movlw	0
  1027  007A98  6FAB               	movwf	171,b	;volatile
  1028                           
  1029                           ;mcc_generated_files/ecan.c: 113:     RXF2SIDH = 0x00;
  1030  007A9A  0E00               	movlw	0
  1031  007A9C  6FA8               	movwf	168,b	;volatile
  1032                           
  1033                           ;mcc_generated_files/ecan.c: 114:     RXF2SIDL = 0x00;
  1034  007A9E  0E00               	movlw	0
  1035  007AA0  6FA9               	movwf	169,b	;volatile
  1036                           
  1037                           ;mcc_generated_files/ecan.c: 115:     RXF3EIDH = 0x00;
  1038  007AA2  0E00               	movlw	0
  1039  007AA4  6FAE               	movwf	174,b	;volatile
  1040                           
  1041                           ;mcc_generated_files/ecan.c: 116:     RXF3EIDL = 0x00;
  1042  007AA6  0E00               	movlw	0
  1043  007AA8  6FAF               	movwf	175,b	;volatile
  1044                           
  1045                           ;mcc_generated_files/ecan.c: 117:     RXF3SIDH = 0x00;
  1046  007AAA  0E00               	movlw	0
  1047  007AAC  6FAC               	movwf	172,b	;volatile
  1048                           
  1049                           ;mcc_generated_files/ecan.c: 118:     RXF3SIDL = 0x00;
  1050  007AAE  0E00               	movlw	0
  1051  007AB0  6FAD               	movwf	173,b	;volatile
  1052                           
  1053                           ;mcc_generated_files/ecan.c: 119:     RXF4EIDH = 0x00;
  1054  007AB2  0E00               	movlw	0
  1055  007AB4  6FB2               	movwf	178,b	;volatile
  1056                           
  1057                           ;mcc_generated_files/ecan.c: 120:     RXF4EIDL = 0x00;
  1058  007AB6  0E00               	movlw	0
  1059  007AB8  6FB3               	movwf	179,b	;volatile
  1060                           
  1061                           ;mcc_generated_files/ecan.c: 121:     RXF4SIDH = 0x00;
  1062  007ABA  0E00               	movlw	0
  1063  007ABC  6FB0               	movwf	176,b	;volatile
  1064                           
  1065                           ;mcc_generated_files/ecan.c: 122:     RXF4SIDL = 0x00;
  1066  007ABE  0E00               	movlw	0
  1067  007AC0  6FB1               	movwf	177,b	;volatile
  1068                           
  1069                           ;mcc_generated_files/ecan.c: 123:     RXF5EIDH = 0x00;
  1070  007AC2  0E00               	movlw	0
  1071  007AC4  6FB6               	movwf	182,b	;volatile
  1072                           
  1073                           ;mcc_generated_files/ecan.c: 124:     RXF5EIDL = 0x00;
  1074  007AC6  0E00               	movlw	0
  1075  007AC8  6FB7               	movwf	183,b	;volatile
  1076                           
  1077                           ;mcc_generated_files/ecan.c: 125:     RXF5SIDH = 0x00;
  1078  007ACA  0E00               	movlw	0
  1079  007ACC  6FB4               	movwf	180,b	;volatile
  1080                           
  1081                           ;mcc_generated_files/ecan.c: 126:     RXF5SIDL = 0x00;
  1082  007ACE  0E00               	movlw	0
  1083  007AD0  6FB5               	movwf	181,b	;volatile
  1084                           
  1085                           ;mcc_generated_files/ecan.c: 141:     BRGCON1 = 0x1F;
  1086  007AD2  0E1F               	movlw	31
  1087  007AD4  6F03               	movwf	3,b	;volatile
  1088                           
  1089                           ;mcc_generated_files/ecan.c: 142:     BRGCON2 = 0x98;
  1090  007AD6  0E98               	movlw	152
  1091  007AD8  6F04               	movwf	4,b	;volatile
  1092                           
  1093                           ;mcc_generated_files/ecan.c: 143:     BRGCON3 = 0x01;
  1094  007ADA  0E01               	movlw	1
  1095  007ADC  6F05               	movwf	5,b	;volatile
  1096  007ADE                     
  1097                           ; BSR set to: 55
  1098                           ;mcc_generated_files/ecan.c: 145:     ECAN_SetWakeUpInterruptHandler(WakeUpDefaultInterr
      +                          uptHandler);
  1099  007ADE  0E0C               	movlw	low _WakeUpDefaultInterruptHandler
  1100  007AE0  6E01               	movwf	ECAN_SetWakeUpInterruptHandler@handler^0,c
  1101  007AE2  0E78               	movlw	high _WakeUpDefaultInterruptHandler
  1102  007AE4  6E02               	movwf	(ECAN_SetWakeUpInterruptHandler@handler+1)^0,c
  1103  007AE6  EC09  F03C         	call	_ECAN_SetWakeUpInterruptHandler	;wreg free
  1104  007AEA                     
  1105                           ;mcc_generated_files/ecan.c: 146:     PIR5bits.WAKIF = 0;
  1106  007AEA  0139               	movlb	57	; () banked
  1107  007AEC  9DA5               	bcf	165,6,b	;volatile
  1108  007AEE                     
  1109                           ; BSR set to: 57
  1110                           ;mcc_generated_files/ecan.c: 147:     PIE5bits.WAKIE = 1;
  1111  007AEE  8D95               	bsf	149,6,b	;volatile
  1112  007AF0                     
  1113                           ; BSR set to: 57
  1114                           ;mcc_generated_files/ecan.c: 149:     CANCON = 0x00;
  1115  007AF0  0E00               	movlw	0
  1116  007AF2  6E8F               	movwf	143,c	;volatile
  1117  007AF4                     l1751:
  1118  007AF4  006F FE38  F003    	movff	16270,??_ECAN_Initialize	;volatile
  1119  007AFA  0EE0               	movlw	224
  1120  007AFC  1603               	andwf	??_ECAN_Initialize^0,f,c
  1121  007AFE  A4D8               	btfss	status,2,c
  1122  007B00  EF84  F03D         	goto	u261
  1123  007B04  EF86  F03D         	goto	u260
  1124  007B08                     u261:
  1125  007B08  EF7A  F03D         	goto	l1751
  1126  007B0C                     u260:
  1127  007B0C  0012               	return		;funcret
  1128  007B0E                     __end_of_ECAN_Initialize:
  1129                           	callstack 0
  1130                           
  1131 ;; *************** function _ECAN_SetWakeUpInterruptHandler *****************
  1132 ;; Defined at:
  1133 ;;		line 439 in file "mcc_generated_files/ecan.c"
  1134 ;; Parameters:    Size  Location     Type
  1135 ;;  handler         2    0[COMRAM] PTR FTN()void 
  1136 ;;		 -> WakeUpDefaultInterruptHandler(1), 
  1137 ;; Auto vars:     Size  Location     Type
  1138 ;;		None
  1139 ;; Return value:  Size  Location     Type
  1140 ;;                  1    wreg      void 
  1141 ;; Registers used:
  1142 ;;		wreg, status,2, status,0
  1143 ;; Tracked objects:
  1144 ;;		On entry : 0/0
  1145 ;;		On exit  : 0/0
  1146 ;;		Unchanged: 0/0
  1147 ;; Data sizes:     COMRAM   BANK0   BANK1   BANK2   BANK3   BANK4   BANK5   BANK6   BANK7   BANK8   BANK9  BANK10  BANK1
      +1  BANK12  BANK13  BANK14  BANK15
  1148 ;;      Params:         2       0       0       0       0       0       0       0       0       0       0       0       
      +0       0       0       0       0
  1149 ;;      Locals:         0       0       0       0       0       0       0       0       0       0       0       0       
      +0       0       0       0       0
  1150 ;;      Temps:          0       0       0       0       0       0       0       0       0       0       0       0       
      +0       0       0       0       0
  1151 ;;      Totals:         2       0       0       0       0       0       0       0       0       0       0       0       
      +0       0       0       0       0
  1152 ;;Total ram usage:        2 bytes
  1153 ;; Hardware stack levels used: 1
  1154 ;; Hardware stack levels required when called: 3
  1155 ;; This function calls:
  1156 ;;		Nothing
  1157 ;; This function is called by:
  1158 ;;		_ECAN_Initialize
  1159 ;; This function uses a non-reentrant model
  1160 ;;
  1161                           
  1162                           	psect	text7
  1163  007812                     __ptext7:
  1164                           	callstack 0
  1165  007812                     _ECAN_SetWakeUpInterruptHandler:
  1166                           	callstack 25
  1167  007812                     
  1168                           ;mcc_generated_files/ecan.c: 439: void ECAN_SetWakeUpInterruptHandler(void (*handler)(vo
      +                          id));mcc_generated_files/ecan.c: 440: {;mcc_generated_files/ecan.c: 441:     WakeUpInter
      +                          ruptHandler = handler;
  1169  007812  C001  F02F         	movff	ECAN_SetWakeUpInterruptHandler@handler,_WakeUpInterruptHandler
  1170  007816  C002  F030         	movff	ECAN_SetWakeUpInterruptHandler@handler+1,_WakeUpInterruptHandler+1
  1171  00781A  0012               	return		;funcret
  1172  00781C                     __end_of_ECAN_SetWakeUpInterruptHandler:
  1173                           	callstack 0
  1174                           
  1175 ;; *************** function _ADCC_Initialize *****************
  1176 ;; Defined at:
  1177 ;;		line 62 in file "mcc_generated_files/adcc.c"
  1178 ;; Parameters:    Size  Location     Type
  1179 ;;		None
  1180 ;; Auto vars:     Size  Location     Type
  1181 ;;		None
  1182 ;; Return value:  Size  Location     Type
  1183 ;;                  1    wreg      void 
  1184 ;; Registers used:
  1185 ;;		wreg, status,2
  1186 ;; Tracked objects:
  1187 ;;		On entry : 0/0
  1188 ;;		On exit  : 0/0
  1189 ;;		Unchanged: 0/0
  1190 ;; Data sizes:     COMRAM   BANK0   BANK1   BANK2   BANK3   BANK4   BANK5   BANK6   BANK7   BANK8   BANK9  BANK10  BANK1
      +1  BANK12  BANK13  BANK14  BANK15
  1191 ;;      Params:         0       0       0       0       0       0       0       0       0       0       0       0       
      +0       0       0       0       0
  1192 ;;      Locals:         0       0       0       0       0       0       0       0       0       0       0       0       
      +0       0       0       0       0
  1193 ;;      Temps:          0       0       0       0       0       0       0       0       0       0       0       0       
      +0       0       0       0       0
  1194 ;;      Totals:         0       0       0       0       0       0       0       0       0       0       0       0       
      +0       0       0       0       0
  1195 ;;Total ram usage:        0 bytes
  1196 ;; Hardware stack levels used: 1
  1197 ;; Hardware stack levels required when called: 3
  1198 ;; This function calls:
  1199 ;;		Nothing
  1200 ;; This function is called by:
  1201 ;;		_SYSTEM_Initialize
  1202 ;; This function uses a non-reentrant model
  1203 ;;
  1204                           
  1205                           	psect	text8
  1206  00795C                     __ptext8:
  1207                           	callstack 0
  1208  00795C                     _ADCC_Initialize:
  1209                           	callstack 26
  1210  00795C                     
  1211                           ;mcc_generated_files/adcc.c: 66:     ADLTHL = 0x00;
  1212  00795C  0E00               	movlw	0
  1213  00795E  013E               	movlb	62	; () banked
  1214  007960  6FDE               	movwf	222,b	;volatile
  1215                           
  1216                           ;mcc_generated_files/adcc.c: 68:     ADLTHH = 0x00;
  1217  007962  0E00               	movlw	0
  1218  007964  6FDF               	movwf	223,b	;volatile
  1219                           
  1220                           ;mcc_generated_files/adcc.c: 70:     ADUTHL = 0x00;
  1221  007966  0E00               	movlw	0
  1222  007968  6FE0               	movwf	224,b	;volatile
  1223                           
  1224                           ;mcc_generated_files/adcc.c: 72:     ADUTHH = 0x00;
  1225  00796A  0E00               	movlw	0
  1226  00796C  6FE1               	movwf	225,b	;volatile
  1227                           
  1228                           ;mcc_generated_files/adcc.c: 74:     ADSTPTL = 0x00;
  1229  00796E  0E00               	movlw	0
  1230  007970  6FE4               	movwf	228,b	;volatile
  1231                           
  1232                           ;mcc_generated_files/adcc.c: 76:     ADSTPTH = 0x00;
  1233  007972  0E00               	movlw	0
  1234  007974  6FE5               	movwf	229,b	;volatile
  1235                           
  1236                           ;mcc_generated_files/adcc.c: 78:     ADACCU = 0x00;
  1237  007976  0E00               	movlw	0
  1238  007978  6FEA               	movwf	234,b	;volatile
  1239                           
  1240                           ;mcc_generated_files/adcc.c: 80:     ADRPT = 0x00;
  1241  00797A  0E00               	movlw	0
  1242  00797C  6FEC               	movwf	236,b	;volatile
  1243                           
  1244                           ;mcc_generated_files/adcc.c: 82:     ADPCH = 0x00;
  1245  00797E  0E00               	movlw	0
  1246  007980  6FF1               	movwf	241,b	;volatile
  1247                           
  1248                           ;mcc_generated_files/adcc.c: 84:     ADACQL = 0x00;
  1249  007982  0E00               	movlw	0
  1250  007984  6FF3               	movwf	243,b	;volatile
  1251                           
  1252                           ;mcc_generated_files/adcc.c: 86:     ADACQH = 0x00;
  1253  007986  0E00               	movlw	0
  1254  007988  6FF4               	movwf	244,b	;volatile
  1255                           
  1256                           ;mcc_generated_files/adcc.c: 88:     ADCAP = 0x00;
  1257  00798A  0E00               	movlw	0
  1258  00798C  6FF5               	movwf	245,b	;volatile
  1259                           
  1260                           ;mcc_generated_files/adcc.c: 90:     ADPREL = 0x00;
  1261  00798E  0E00               	movlw	0
  1262  007990  6FF6               	movwf	246,b	;volatile
  1263                           
  1264                           ;mcc_generated_files/adcc.c: 92:     ADPREH = 0x00;
  1265  007992  0E00               	movlw	0
  1266  007994  6FF7               	movwf	247,b	;volatile
  1267                           
  1268                           ;mcc_generated_files/adcc.c: 94:     ADCON1 = 0x00;
  1269  007996  0E00               	movlw	0
  1270  007998  6FF9               	movwf	249,b	;volatile
  1271                           
  1272                           ;mcc_generated_files/adcc.c: 96:     ADCON2 = 0x00;
  1273  00799A  0E00               	movlw	0
  1274  00799C  6FFA               	movwf	250,b	;volatile
  1275                           
  1276                           ;mcc_generated_files/adcc.c: 98:     ADCON3 = 0x00;
  1277  00799E  0E00               	movlw	0
  1278  0079A0  6FFB               	movwf	251,b	;volatile
  1279                           
  1280                           ;mcc_generated_files/adcc.c: 100:     ADSTAT = 0x00;
  1281  0079A2  0E00               	movlw	0
  1282  0079A4  6FFC               	movwf	252,b	;volatile
  1283                           
  1284                           ;mcc_generated_files/adcc.c: 102:     ADREF = 0x00;
  1285  0079A6  0E00               	movlw	0
  1286  0079A8  6FFD               	movwf	253,b	;volatile
  1287                           
  1288                           ;mcc_generated_files/adcc.c: 104:     ADACT = 0x00;
  1289  0079AA  0E00               	movlw	0
  1290  0079AC  6FFE               	movwf	254,b	;volatile
  1291                           
  1292                           ;mcc_generated_files/adcc.c: 106:     ADCLK = 0x31;
  1293  0079AE  0E31               	movlw	49
  1294  0079B0  6FFF               	movwf	255,b	;volatile
  1295                           
  1296                           ;mcc_generated_files/adcc.c: 108:     ADCON0 = 0x84;
  1297  0079B2  0E84               	movlw	132
  1298  0079B4  6FF8               	movwf	248,b	;volatile
  1299  0079B6                     
  1300                           ; BSR set to: 62
  1301  0079B6  0012               	return		;funcret
  1302  0079B8                     __end_of_ADCC_Initialize:
  1303                           	callstack 0
  1304                           
  1305 ;; *************** function _CAN_transmit *****************
  1306 ;; Defined at:
  1307 ;;		line 165 in file "mcc_generated_files/ecan.c"
  1308 ;; Parameters:    Size  Location     Type
  1309 ;;  tempCanMsg      2   18[COMRAM] PTR struct .
  1310 ;;		 -> main@CanCurrentData(14), 
  1311 ;; Auto vars:     Size  Location     Type
  1312 ;;  tempSIDL        1   23[COMRAM] unsigned char 
  1313 ;;  tempSIDH        1   22[COMRAM] unsigned char 
  1314 ;;  tempEIDL        1   21[COMRAM] unsigned char 
  1315 ;;  tempEIDH        1   20[COMRAM] unsigned char 
  1316 ;;  returnValue     1    0        unsigned char 
  1317 ;; Return value:  Size  Location     Type
  1318 ;;                  1    wreg      unsigned char 
  1319 ;; Registers used:
  1320 ;;		wreg, fsr2l, fsr2h, status,2, status,0, cstack
  1321 ;; Tracked objects:
  1322 ;;		On entry : 0/0
  1323 ;;		On exit  : 0/0
  1324 ;;		Unchanged: 0/0
  1325 ;; Data sizes:     COMRAM   BANK0   BANK1   BANK2   BANK3   BANK4   BANK5   BANK6   BANK7   BANK8   BANK9  BANK10  BANK1
      +1  BANK12  BANK13  BANK14  BANK15
  1326 ;;      Params:         2       0       0       0       0       0       0       0       0       0       0       0       
      +0       0       0       0       0
  1327 ;;      Locals:         4       0       0       0       0       0       0       0       0       0       0       0       
      +0       0       0       0       0
  1328 ;;      Temps:          0       0       0       0       0       0       0       0       0       0       0       0       
      +0       0       0       0       0
  1329 ;;      Totals:         6       0       0       0       0       0       0       0       0       0       0       0       
      +0       0       0       0       0
  1330 ;;Total ram usage:        6 bytes
  1331 ;; Hardware stack levels used: 1
  1332 ;; Hardware stack levels required when called: 4
  1333 ;; This function calls:
  1334 ;;		_convertCANid2Reg
  1335 ;; This function is called by:
  1336 ;;		_main
  1337 ;; This function uses a non-reentrant model
  1338 ;;
  1339                           
  1340                           	psect	text9
  1341  007CA6                     __ptext9:
  1342                           	callstack 0
  1343  007CA6                     _CAN_transmit:
  1344                           	callstack 26
  1345  007CA6                     
  1346                           ;mcc_generated_files/ecan.c: 166:     uint8_t tempEIDH = 0;
  1347  007CA6  0E00               	movlw	0
  1348  007CA8  6E15               	movwf	CAN_transmit@tempEIDH^0,c
  1349                           
  1350                           ;mcc_generated_files/ecan.c: 167:     uint8_t tempEIDL = 0;
  1351  007CAA  0E00               	movlw	0
  1352  007CAC  6E16               	movwf	CAN_transmit@tempEIDL^0,c
  1353                           
  1354                           ;mcc_generated_files/ecan.c: 168:     uint8_t tempSIDH = 0;
  1355  007CAE  0E00               	movlw	0
  1356  007CB0  6E17               	movwf	CAN_transmit@tempSIDH^0,c
  1357                           
  1358                           ;mcc_generated_files/ecan.c: 169:     uint8_t tempSIDL = 0;
  1359  007CB2  0E00               	movlw	0
  1360  007CB4  6E18               	movwf	CAN_transmit@tempSIDL^0,c
  1361  007CB6                     
  1362                           ;mcc_generated_files/ecan.c: 173:     if (TXB0CONbits.TXREQ != 1)
  1363  007CB6  0137               	movlb	55	; () banked
  1364  007CB8  B7E0               	btfsc	224,3,b	;volatile
  1365  007CBA  EF61  F03E         	goto	u301
  1366  007CBE  EF63  F03E         	goto	u300
  1367  007CC2                     u301:
  1368  007CC2  EFE7  F03E         	goto	l358
  1369  007CC6                     u300:
  1370  007CC6                     
  1371                           ; BSR set to: 55
  1372                           ;mcc_generated_files/ecan.c: 174:     {;mcc_generated_files/ecan.c: 175:         convert
      +                          CANid2Reg(tempCanMsg->frame.id, tempCanMsg->frame.idType, &tempEIDH, &tempEIDL, &tempSID
      +                          H, &tempSIDL);
  1373  007CC6  EE20 F001          	lfsr	2,1
  1374  007CCA  5013               	movf	CAN_transmit@tempCanMsg^0,w,c
  1375  007CCC  26D9               	addwf	fsr2l,f,c
  1376  007CCE  5014               	movf	(CAN_transmit@tempCanMsg+1)^0,w,c
  1377  007CD0  22DA               	addwfc	fsr2h,f,c
  1378  007CD2  006F FF78  F001    	movff	postinc2,convertCANid2Reg@tempPassedInID
  1379  007CD8  006F FF78  F002    	movff	postinc2,convertCANid2Reg@tempPassedInID+1
  1380  007CDE  006F FF78  F003    	movff	postinc2,convertCANid2Reg@tempPassedInID+2
  1381  007CE4  006F FF78  F004    	movff	postinc2,convertCANid2Reg@tempPassedInID+3
  1382  007CEA  0060  F04F  FFD9   	movff	CAN_transmit@tempCanMsg,fsr2l
  1383  007CF0  0060  F053  FFDA   	movff	CAN_transmit@tempCanMsg+1,fsr2h
  1384  007CF6  50DF               	movf	indf2,w,c
  1385  007CF8  6E05               	movwf	convertCANid2Reg@canIdType^0,c
  1386  007CFA  0E15               	movlw	low CAN_transmit@tempEIDH
  1387  007CFC  6E06               	movwf	convertCANid2Reg@passedInEIDH^0,c
  1388  007CFE  0E00               	movlw	high CAN_transmit@tempEIDH
  1389  007D00  6E07               	movwf	(convertCANid2Reg@passedInEIDH+1)^0,c
  1390  007D02  0E16               	movlw	low CAN_transmit@tempEIDL
  1391  007D04  6E08               	movwf	convertCANid2Reg@passedInEIDL^0,c
  1392  007D06  0E00               	movlw	high CAN_transmit@tempEIDL
  1393  007D08  6E09               	movwf	(convertCANid2Reg@passedInEIDL+1)^0,c
  1394  007D0A  0E17               	movlw	low CAN_transmit@tempSIDH
  1395  007D0C  6E0A               	movwf	convertCANid2Reg@passedInSIDH^0,c
  1396  007D0E  0E00               	movlw	high CAN_transmit@tempSIDH
  1397  007D10  6E0B               	movwf	(convertCANid2Reg@passedInSIDH+1)^0,c
  1398  007D12  0E18               	movlw	low CAN_transmit@tempSIDL
  1399  007D14  6E0C               	movwf	convertCANid2Reg@passedInSIDL^0,c
  1400  007D16  0E00               	movlw	high CAN_transmit@tempSIDL
  1401  007D18  6E0D               	movwf	(convertCANid2Reg@passedInSIDL+1)^0,c
  1402  007D1A  EC87  F03D         	call	_convertCANid2Reg	;wreg free
  1403  007D1E                     
  1404                           ;mcc_generated_files/ecan.c: 177:         TXB0EIDH = tempEIDH;
  1405  007D1E  0060  F057  F7E3   	movff	CAN_transmit@tempEIDH,14307	;volatile
  1406  007D24                     
  1407                           ;mcc_generated_files/ecan.c: 178:         TXB0EIDL = tempEIDL;
  1408  007D24  0060  F05B  F7E4   	movff	CAN_transmit@tempEIDL,14308	;volatile
  1409  007D2A                     
  1410                           ;mcc_generated_files/ecan.c: 179:         TXB0SIDH = tempSIDH;
  1411  007D2A  0060  F05F  F7E1   	movff	CAN_transmit@tempSIDH,14305	;volatile
  1412  007D30                     
  1413                           ;mcc_generated_files/ecan.c: 180:         TXB0SIDL = tempSIDL;
  1414  007D30  0060  F063  F7E2   	movff	CAN_transmit@tempSIDL,14306	;volatile
  1415  007D36                     
  1416                           ;mcc_generated_files/ecan.c: 181:         TXB0DLC = tempCanMsg->frame.dlc;
  1417  007D36  EE20 F005          	lfsr	2,5
  1418  007D3A  5013               	movf	CAN_transmit@tempCanMsg^0,w,c
  1419  007D3C  26D9               	addwf	fsr2l,f,c
  1420  007D3E  5014               	movf	(CAN_transmit@tempCanMsg+1)^0,w,c
  1421  007D40  22DA               	addwfc	fsr2h,f,c
  1422  007D42  50DF               	movf	indf2,w,c
  1423  007D44  0137               	movlb	55	; () banked
  1424  007D46  6FE5               	movwf	229,b	;volatile
  1425  007D48                     
  1426                           ; BSR set to: 55
  1427                           ;mcc_generated_files/ecan.c: 182:         TXB0D0 = tempCanMsg->frame.data0;
  1428  007D48  EE20 F006          	lfsr	2,6
  1429  007D4C  5013               	movf	CAN_transmit@tempCanMsg^0,w,c
  1430  007D4E  26D9               	addwf	fsr2l,f,c
  1431  007D50  5014               	movf	(CAN_transmit@tempCanMsg+1)^0,w,c
  1432  007D52  22DA               	addwfc	fsr2h,f,c
  1433  007D54  50DF               	movf	indf2,w,c
  1434  007D56  6FE6               	movwf	230,b	;volatile
  1435  007D58                     
  1436                           ; BSR set to: 55
  1437                           ;mcc_generated_files/ecan.c: 183:         TXB0D1 = tempCanMsg->frame.data1;
  1438  007D58  EE20 F007          	lfsr	2,7
  1439  007D5C  5013               	movf	CAN_transmit@tempCanMsg^0,w,c
  1440  007D5E  26D9               	addwf	fsr2l,f,c
  1441  007D60  5014               	movf	(CAN_transmit@tempCanMsg+1)^0,w,c
  1442  007D62  22DA               	addwfc	fsr2h,f,c
  1443  007D64  50DF               	movf	indf2,w,c
  1444  007D66  6FE7               	movwf	231,b	;volatile
  1445  007D68                     
  1446                           ; BSR set to: 55
  1447                           ;mcc_generated_files/ecan.c: 184:         TXB0D2 = tempCanMsg->frame.data2;
  1448  007D68  EE20 F008          	lfsr	2,8
  1449  007D6C  5013               	movf	CAN_transmit@tempCanMsg^0,w,c
  1450  007D6E  26D9               	addwf	fsr2l,f,c
  1451  007D70  5014               	movf	(CAN_transmit@tempCanMsg+1)^0,w,c
  1452  007D72  22DA               	addwfc	fsr2h,f,c
  1453  007D74  50DF               	movf	indf2,w,c
  1454  007D76  6FE8               	movwf	232,b	;volatile
  1455  007D78                     
  1456                           ; BSR set to: 55
  1457                           ;mcc_generated_files/ecan.c: 185:         TXB0D3 = tempCanMsg->frame.data3;
  1458  007D78  EE20 F009          	lfsr	2,9
  1459  007D7C  5013               	movf	CAN_transmit@tempCanMsg^0,w,c
  1460  007D7E  26D9               	addwf	fsr2l,f,c
  1461  007D80  5014               	movf	(CAN_transmit@tempCanMsg+1)^0,w,c
  1462  007D82  22DA               	addwfc	fsr2h,f,c
  1463  007D84  50DF               	movf	indf2,w,c
  1464  007D86  6FE9               	movwf	233,b	;volatile
  1465  007D88                     
  1466                           ; BSR set to: 55
  1467                           ;mcc_generated_files/ecan.c: 186:         TXB0D4 = tempCanMsg->frame.data4;
  1468  007D88  EE20 F00A          	lfsr	2,10
  1469  007D8C  5013               	movf	CAN_transmit@tempCanMsg^0,w,c
  1470  007D8E  26D9               	addwf	fsr2l,f,c
  1471  007D90  5014               	movf	(CAN_transmit@tempCanMsg+1)^0,w,c
  1472  007D92  22DA               	addwfc	fsr2h,f,c
  1473  007D94  50DF               	movf	indf2,w,c
  1474  007D96  6FEA               	movwf	234,b	;volatile
  1475  007D98                     
  1476                           ; BSR set to: 55
  1477                           ;mcc_generated_files/ecan.c: 187:         TXB0D5 = tempCanMsg->frame.data5;
  1478  007D98  EE20 F00B          	lfsr	2,11
  1479  007D9C  5013               	movf	CAN_transmit@tempCanMsg^0,w,c
  1480  007D9E  26D9               	addwf	fsr2l,f,c
  1481  007DA0  5014               	movf	(CAN_transmit@tempCanMsg+1)^0,w,c
  1482  007DA2  22DA               	addwfc	fsr2h,f,c
  1483  007DA4  50DF               	movf	indf2,w,c
  1484  007DA6  6FEB               	movwf	235,b	;volatile
  1485  007DA8                     
  1486                           ; BSR set to: 55
  1487                           ;mcc_generated_files/ecan.c: 188:         TXB0D6 = tempCanMsg->frame.data6;
  1488  007DA8  EE20 F00C          	lfsr	2,12
  1489  007DAC  5013               	movf	CAN_transmit@tempCanMsg^0,w,c
  1490  007DAE  26D9               	addwf	fsr2l,f,c
  1491  007DB0  5014               	movf	(CAN_transmit@tempCanMsg+1)^0,w,c
  1492  007DB2  22DA               	addwfc	fsr2h,f,c
  1493  007DB4  50DF               	movf	indf2,w,c
  1494  007DB6  6FEC               	movwf	236,b	;volatile
  1495  007DB8                     
  1496                           ; BSR set to: 55
  1497                           ;mcc_generated_files/ecan.c: 189:         TXB0D7 = tempCanMsg->frame.data7;
  1498  007DB8  EE20 F00D          	lfsr	2,13
  1499  007DBC  5013               	movf	CAN_transmit@tempCanMsg^0,w,c
  1500  007DBE  26D9               	addwf	fsr2l,f,c
  1501  007DC0  5014               	movf	(CAN_transmit@tempCanMsg+1)^0,w,c
  1502  007DC2  22DA               	addwfc	fsr2h,f,c
  1503  007DC4  50DF               	movf	indf2,w,c
  1504  007DC6  6FED               	movwf	237,b	;volatile
  1505  007DC8                     
  1506                           ; BSR set to: 55
  1507                           ;mcc_generated_files/ecan.c: 191:         TXB0CONbits.TXREQ = 1;
  1508  007DC8  87E0               	bsf	224,3,b	;volatile
  1509  007DCA                     l1833:
  1510                           
  1511                           ; BSR set to: 55
  1512                           ;mcc_generated_files/ecan.c: 194:     }
  1513  007DCA  EFFD  F03F         	goto	l363
  1514  007DCE                     l358:
  1515                           
  1516                           ; BSR set to: 55
  1517  007DCE  B7D0               	btfsc	208,3,b	;volatile
  1518  007DD0  EFEC  F03E         	goto	u311
  1519  007DD4  EFEE  F03E         	goto	u310
  1520  007DD8                     u311:
  1521  007DD8  EF72  F03F         	goto	l360
  1522  007DDC                     u310:
  1523  007DDC                     
  1524                           ; BSR set to: 55
  1525                           ;mcc_generated_files/ecan.c: 196:     {;mcc_generated_files/ecan.c: 198:         convert
      +                          CANid2Reg(tempCanMsg->frame.id, tempCanMsg->frame.idType, &tempEIDH, &tempEIDL, &tempSID
      +                          H, &tempSIDL);
  1526  007DDC  EE20 F001          	lfsr	2,1
  1527  007DE0  5013               	movf	CAN_transmit@tempCanMsg^0,w,c
  1528  007DE2  26D9               	addwf	fsr2l,f,c
  1529  007DE4  5014               	movf	(CAN_transmit@tempCanMsg+1)^0,w,c
  1530  007DE6  22DA               	addwfc	fsr2h,f,c
  1531  007DE8  006F FF78  F001    	movff	postinc2,convertCANid2Reg@tempPassedInID
  1532  007DEE  006F FF78  F002    	movff	postinc2,convertCANid2Reg@tempPassedInID+1
  1533  007DF4  006F FF78  F003    	movff	postinc2,convertCANid2Reg@tempPassedInID+2
  1534  007DFA  006F FF78  F004    	movff	postinc2,convertCANid2Reg@tempPassedInID+3
  1535  007E00  0060  F04F  FFD9   	movff	CAN_transmit@tempCanMsg,fsr2l
  1536  007E06  0060  F053  FFDA   	movff	CAN_transmit@tempCanMsg+1,fsr2h
  1537  007E0C  50DF               	movf	indf2,w,c
  1538  007E0E  6E05               	movwf	convertCANid2Reg@canIdType^0,c
  1539  007E10  0E15               	movlw	low CAN_transmit@tempEIDH
  1540  007E12  6E06               	movwf	convertCANid2Reg@passedInEIDH^0,c
  1541  007E14  0E00               	movlw	high CAN_transmit@tempEIDH
  1542  007E16  6E07               	movwf	(convertCANid2Reg@passedInEIDH+1)^0,c
  1543  007E18  0E16               	movlw	low CAN_transmit@tempEIDL
  1544  007E1A  6E08               	movwf	convertCANid2Reg@passedInEIDL^0,c
  1545  007E1C  0E00               	movlw	high CAN_transmit@tempEIDL
  1546  007E1E  6E09               	movwf	(convertCANid2Reg@passedInEIDL+1)^0,c
  1547  007E20  0E17               	movlw	low CAN_transmit@tempSIDH
  1548  007E22  6E0A               	movwf	convertCANid2Reg@passedInSIDH^0,c
  1549  007E24  0E00               	movlw	high CAN_transmit@tempSIDH
  1550  007E26  6E0B               	movwf	(convertCANid2Reg@passedInSIDH+1)^0,c
  1551  007E28  0E18               	movlw	low CAN_transmit@tempSIDL
  1552  007E2A  6E0C               	movwf	convertCANid2Reg@passedInSIDL^0,c
  1553  007E2C  0E00               	movlw	high CAN_transmit@tempSIDL
  1554  007E2E  6E0D               	movwf	(convertCANid2Reg@passedInSIDL+1)^0,c
  1555  007E30  EC87  F03D         	call	_convertCANid2Reg	;wreg free
  1556  007E34                     
  1557                           ;mcc_generated_files/ecan.c: 200:         TXB1EIDH = tempEIDH;
  1558  007E34  0060  F057  F7D3   	movff	CAN_transmit@tempEIDH,14291	;volatile
  1559  007E3A                     
  1560                           ;mcc_generated_files/ecan.c: 201:         TXB1EIDL = tempEIDL;
  1561  007E3A  0060  F05B  F7D4   	movff	CAN_transmit@tempEIDL,14292	;volatile
  1562  007E40                     
  1563                           ;mcc_generated_files/ecan.c: 202:         TXB1SIDH = tempSIDH;
  1564  007E40  0060  F05F  F7D1   	movff	CAN_transmit@tempSIDH,14289	;volatile
  1565  007E46                     
  1566                           ;mcc_generated_files/ecan.c: 203:         TXB1SIDL = tempSIDL;
  1567  007E46  0060  F063  F7D2   	movff	CAN_transmit@tempSIDL,14290	;volatile
  1568  007E4C                     
  1569                           ;mcc_generated_files/ecan.c: 204:         TXB1DLC = tempCanMsg->frame.dlc;
  1570  007E4C  EE20 F005          	lfsr	2,5
  1571  007E50  5013               	movf	CAN_transmit@tempCanMsg^0,w,c
  1572  007E52  26D9               	addwf	fsr2l,f,c
  1573  007E54  5014               	movf	(CAN_transmit@tempCanMsg+1)^0,w,c
  1574  007E56  22DA               	addwfc	fsr2h,f,c
  1575  007E58  50DF               	movf	indf2,w,c
  1576  007E5A  0137               	movlb	55	; () banked
  1577  007E5C  6FD5               	movwf	213,b	;volatile
  1578  007E5E                     
  1579                           ; BSR set to: 55
  1580                           ;mcc_generated_files/ecan.c: 205:         TXB1D0 = tempCanMsg->frame.data0;
  1581  007E5E  EE20 F006          	lfsr	2,6
  1582  007E62  5013               	movf	CAN_transmit@tempCanMsg^0,w,c
  1583  007E64  26D9               	addwf	fsr2l,f,c
  1584  007E66  5014               	movf	(CAN_transmit@tempCanMsg+1)^0,w,c
  1585  007E68  22DA               	addwfc	fsr2h,f,c
  1586  007E6A  50DF               	movf	indf2,w,c
  1587  007E6C  6FD6               	movwf	214,b	;volatile
  1588  007E6E                     
  1589                           ; BSR set to: 55
  1590                           ;mcc_generated_files/ecan.c: 206:         TXB1D1 = tempCanMsg->frame.data1;
  1591  007E6E  EE20 F007          	lfsr	2,7
  1592  007E72  5013               	movf	CAN_transmit@tempCanMsg^0,w,c
  1593  007E74  26D9               	addwf	fsr2l,f,c
  1594  007E76  5014               	movf	(CAN_transmit@tempCanMsg+1)^0,w,c
  1595  007E78  22DA               	addwfc	fsr2h,f,c
  1596  007E7A  50DF               	movf	indf2,w,c
  1597  007E7C  6FD7               	movwf	215,b	;volatile
  1598  007E7E                     
  1599                           ; BSR set to: 55
  1600                           ;mcc_generated_files/ecan.c: 207:         TXB1D2 = tempCanMsg->frame.data2;
  1601  007E7E  EE20 F008          	lfsr	2,8
  1602  007E82  5013               	movf	CAN_transmit@tempCanMsg^0,w,c
  1603  007E84  26D9               	addwf	fsr2l,f,c
  1604  007E86  5014               	movf	(CAN_transmit@tempCanMsg+1)^0,w,c
  1605  007E88  22DA               	addwfc	fsr2h,f,c
  1606  007E8A  50DF               	movf	indf2,w,c
  1607  007E8C  6FD8               	movwf	216,b	;volatile
  1608  007E8E                     
  1609                           ; BSR set to: 55
  1610                           ;mcc_generated_files/ecan.c: 208:         TXB1D3 = tempCanMsg->frame.data3;
  1611  007E8E  EE20 F009          	lfsr	2,9
  1612  007E92  5013               	movf	CAN_transmit@tempCanMsg^0,w,c
  1613  007E94  26D9               	addwf	fsr2l,f,c
  1614  007E96  5014               	movf	(CAN_transmit@tempCanMsg+1)^0,w,c
  1615  007E98  22DA               	addwfc	fsr2h,f,c
  1616  007E9A  50DF               	movf	indf2,w,c
  1617  007E9C  6FD9               	movwf	217,b	;volatile
  1618  007E9E                     
  1619                           ; BSR set to: 55
  1620                           ;mcc_generated_files/ecan.c: 209:         TXB1D4 = tempCanMsg->frame.data4;
  1621  007E9E  EE20 F00A          	lfsr	2,10
  1622  007EA2  5013               	movf	CAN_transmit@tempCanMsg^0,w,c
  1623  007EA4  26D9               	addwf	fsr2l,f,c
  1624  007EA6  5014               	movf	(CAN_transmit@tempCanMsg+1)^0,w,c
  1625  007EA8  22DA               	addwfc	fsr2h,f,c
  1626  007EAA  50DF               	movf	indf2,w,c
  1627  007EAC  6FDA               	movwf	218,b	;volatile
  1628  007EAE                     
  1629                           ; BSR set to: 55
  1630                           ;mcc_generated_files/ecan.c: 210:         TXB1D5 = tempCanMsg->frame.data5;
  1631  007EAE  EE20 F00B          	lfsr	2,11
  1632  007EB2  5013               	movf	CAN_transmit@tempCanMsg^0,w,c
  1633  007EB4  26D9               	addwf	fsr2l,f,c
  1634  007EB6  5014               	movf	(CAN_transmit@tempCanMsg+1)^0,w,c
  1635  007EB8  22DA               	addwfc	fsr2h,f,c
  1636  007EBA  50DF               	movf	indf2,w,c
  1637  007EBC  6FDB               	movwf	219,b	;volatile
  1638  007EBE                     
  1639                           ; BSR set to: 55
  1640                           ;mcc_generated_files/ecan.c: 211:         TXB1D6 = tempCanMsg->frame.data6;
  1641  007EBE  EE20 F00C          	lfsr	2,12
  1642  007EC2  5013               	movf	CAN_transmit@tempCanMsg^0,w,c
  1643  007EC4  26D9               	addwf	fsr2l,f,c
  1644  007EC6  5014               	movf	(CAN_transmit@tempCanMsg+1)^0,w,c
  1645  007EC8  22DA               	addwfc	fsr2h,f,c
  1646  007ECA  50DF               	movf	indf2,w,c
  1647  007ECC  6FDC               	movwf	220,b	;volatile
  1648  007ECE                     
  1649                           ; BSR set to: 55
  1650                           ;mcc_generated_files/ecan.c: 212:         TXB1D7 = tempCanMsg->frame.data7;
  1651  007ECE  EE20 F00D          	lfsr	2,13
  1652  007ED2  5013               	movf	CAN_transmit@tempCanMsg^0,w,c
  1653  007ED4  26D9               	addwf	fsr2l,f,c
  1654  007ED6  5014               	movf	(CAN_transmit@tempCanMsg+1)^0,w,c
  1655  007ED8  22DA               	addwfc	fsr2h,f,c
  1656  007EDA  50DF               	movf	indf2,w,c
  1657  007EDC  6FDD               	movwf	221,b	;volatile
  1658  007EDE                     
  1659                           ; BSR set to: 55
  1660                           ;mcc_generated_files/ecan.c: 214:         TXB1CONbits.TXREQ = 1;
  1661  007EDE  87D0               	bsf	208,3,b	;volatile
  1662  007EE0  EFE5  F03E         	goto	l1833
  1663  007EE4                     l360:
  1664                           
  1665                           ; BSR set to: 55
  1666  007EE4  B7C0               	btfsc	192,3,b	;volatile
  1667  007EE6  EF77  F03F         	goto	u321
  1668  007EEA  EF79  F03F         	goto	u320
  1669  007EEE                     u321:
  1670  007EEE  EFFD  F03F         	goto	l359
  1671  007EF2                     u320:
  1672  007EF2                     
  1673                           ; BSR set to: 55
  1674                           ;mcc_generated_files/ecan.c: 218:     {;mcc_generated_files/ecan.c: 220:         convert
      +                          CANid2Reg(tempCanMsg->frame.id, tempCanMsg->frame.idType, &tempEIDH, &tempEIDL, &tempSID
      +                          H, &tempSIDL);
  1675  007EF2  EE20 F001          	lfsr	2,1
  1676  007EF6  5013               	movf	CAN_transmit@tempCanMsg^0,w,c
  1677  007EF8  26D9               	addwf	fsr2l,f,c
  1678  007EFA  5014               	movf	(CAN_transmit@tempCanMsg+1)^0,w,c
  1679  007EFC  22DA               	addwfc	fsr2h,f,c
  1680  007EFE  006F FF78  F001    	movff	postinc2,convertCANid2Reg@tempPassedInID
  1681  007F04  006F FF78  F002    	movff	postinc2,convertCANid2Reg@tempPassedInID+1
  1682  007F0A  006F FF78  F003    	movff	postinc2,convertCANid2Reg@tempPassedInID+2
  1683  007F10  006F FF78  F004    	movff	postinc2,convertCANid2Reg@tempPassedInID+3
  1684  007F16  0060  F04F  FFD9   	movff	CAN_transmit@tempCanMsg,fsr2l
  1685  007F1C  0060  F053  FFDA   	movff	CAN_transmit@tempCanMsg+1,fsr2h
  1686  007F22  50DF               	movf	indf2,w,c
  1687  007F24  6E05               	movwf	convertCANid2Reg@canIdType^0,c
  1688  007F26  0E15               	movlw	low CAN_transmit@tempEIDH
  1689  007F28  6E06               	movwf	convertCANid2Reg@passedInEIDH^0,c
  1690  007F2A  0E00               	movlw	high CAN_transmit@tempEIDH
  1691  007F2C  6E07               	movwf	(convertCANid2Reg@passedInEIDH+1)^0,c
  1692  007F2E  0E16               	movlw	low CAN_transmit@tempEIDL
  1693  007F30  6E08               	movwf	convertCANid2Reg@passedInEIDL^0,c
  1694  007F32  0E00               	movlw	high CAN_transmit@tempEIDL
  1695  007F34  6E09               	movwf	(convertCANid2Reg@passedInEIDL+1)^0,c
  1696  007F36  0E17               	movlw	low CAN_transmit@tempSIDH
  1697  007F38  6E0A               	movwf	convertCANid2Reg@passedInSIDH^0,c
  1698  007F3A  0E00               	movlw	high CAN_transmit@tempSIDH
  1699  007F3C  6E0B               	movwf	(convertCANid2Reg@passedInSIDH+1)^0,c
  1700  007F3E  0E18               	movlw	low CAN_transmit@tempSIDL
  1701  007F40  6E0C               	movwf	convertCANid2Reg@passedInSIDL^0,c
  1702  007F42  0E00               	movlw	high CAN_transmit@tempSIDL
  1703  007F44  6E0D               	movwf	(convertCANid2Reg@passedInSIDL+1)^0,c
  1704  007F46  EC87  F03D         	call	_convertCANid2Reg	;wreg free
  1705  007F4A                     
  1706                           ;mcc_generated_files/ecan.c: 222:         TXB2EIDH = tempEIDH;
  1707  007F4A  0060  F057  F7C3   	movff	CAN_transmit@tempEIDH,14275	;volatile
  1708  007F50                     
  1709                           ;mcc_generated_files/ecan.c: 223:         TXB2EIDL = tempEIDL;
  1710  007F50  0060  F05B  F7C4   	movff	CAN_transmit@tempEIDL,14276	;volatile
  1711  007F56                     
  1712                           ;mcc_generated_files/ecan.c: 224:         TXB2SIDH = tempSIDH;
  1713  007F56  0060  F05F  F7C1   	movff	CAN_transmit@tempSIDH,14273	;volatile
  1714  007F5C                     
  1715                           ;mcc_generated_files/ecan.c: 225:         TXB2SIDL = tempSIDL;
  1716  007F5C  0060  F063  F7C2   	movff	CAN_transmit@tempSIDL,14274	;volatile
  1717  007F62                     
  1718                           ;mcc_generated_files/ecan.c: 226:         TXB2DLC = tempCanMsg->frame.dlc;
  1719  007F62  EE20 F005          	lfsr	2,5
  1720  007F66  5013               	movf	CAN_transmit@tempCanMsg^0,w,c
  1721  007F68  26D9               	addwf	fsr2l,f,c
  1722  007F6A  5014               	movf	(CAN_transmit@tempCanMsg+1)^0,w,c
  1723  007F6C  22DA               	addwfc	fsr2h,f,c
  1724  007F6E  50DF               	movf	indf2,w,c
  1725  007F70  0137               	movlb	55	; () banked
  1726  007F72  6FC5               	movwf	197,b	;volatile
  1727  007F74                     
  1728                           ; BSR set to: 55
  1729                           ;mcc_generated_files/ecan.c: 227:         TXB2D0 = tempCanMsg->frame.data0;
  1730  007F74  EE20 F006          	lfsr	2,6
  1731  007F78  5013               	movf	CAN_transmit@tempCanMsg^0,w,c
  1732  007F7A  26D9               	addwf	fsr2l,f,c
  1733  007F7C  5014               	movf	(CAN_transmit@tempCanMsg+1)^0,w,c
  1734  007F7E  22DA               	addwfc	fsr2h,f,c
  1735  007F80  50DF               	movf	indf2,w,c
  1736  007F82  6FC6               	movwf	198,b	;volatile
  1737  007F84                     
  1738                           ; BSR set to: 55
  1739                           ;mcc_generated_files/ecan.c: 228:         TXB2D1 = tempCanMsg->frame.data1;
  1740  007F84  EE20 F007          	lfsr	2,7
  1741  007F88  5013               	movf	CAN_transmit@tempCanMsg^0,w,c
  1742  007F8A  26D9               	addwf	fsr2l,f,c
  1743  007F8C  5014               	movf	(CAN_transmit@tempCanMsg+1)^0,w,c
  1744  007F8E  22DA               	addwfc	fsr2h,f,c
  1745  007F90  50DF               	movf	indf2,w,c
  1746  007F92  6FC7               	movwf	199,b	;volatile
  1747  007F94                     
  1748                           ; BSR set to: 55
  1749                           ;mcc_generated_files/ecan.c: 229:         TXB2D2 = tempCanMsg->frame.data2;
  1750  007F94  EE20 F008          	lfsr	2,8
  1751  007F98  5013               	movf	CAN_transmit@tempCanMsg^0,w,c
  1752  007F9A  26D9               	addwf	fsr2l,f,c
  1753  007F9C  5014               	movf	(CAN_transmit@tempCanMsg+1)^0,w,c
  1754  007F9E  22DA               	addwfc	fsr2h,f,c
  1755  007FA0  50DF               	movf	indf2,w,c
  1756  007FA2  6FC8               	movwf	200,b	;volatile
  1757  007FA4                     
  1758                           ; BSR set to: 55
  1759                           ;mcc_generated_files/ecan.c: 230:         TXB2D3 = tempCanMsg->frame.data3;
  1760  007FA4  EE20 F009          	lfsr	2,9
  1761  007FA8  5013               	movf	CAN_transmit@tempCanMsg^0,w,c
  1762  007FAA  26D9               	addwf	fsr2l,f,c
  1763  007FAC  5014               	movf	(CAN_transmit@tempCanMsg+1)^0,w,c
  1764  007FAE  22DA               	addwfc	fsr2h,f,c
  1765  007FB0  50DF               	movf	indf2,w,c
  1766  007FB2  6FC9               	movwf	201,b	;volatile
  1767  007FB4                     
  1768                           ; BSR set to: 55
  1769                           ;mcc_generated_files/ecan.c: 231:         TXB2D4 = tempCanMsg->frame.data4;
  1770  007FB4  EE20 F00A          	lfsr	2,10
  1771  007FB8  5013               	movf	CAN_transmit@tempCanMsg^0,w,c
  1772  007FBA  26D9               	addwf	fsr2l,f,c
  1773  007FBC  5014               	movf	(CAN_transmit@tempCanMsg+1)^0,w,c
  1774  007FBE  22DA               	addwfc	fsr2h,f,c
  1775  007FC0  50DF               	movf	indf2,w,c
  1776  007FC2  6FCA               	movwf	202,b	;volatile
  1777  007FC4                     
  1778                           ; BSR set to: 55
  1779                           ;mcc_generated_files/ecan.c: 232:         TXB2D5 = tempCanMsg->frame.data5;
  1780  007FC4  EE20 F00B          	lfsr	2,11
  1781  007FC8  5013               	movf	CAN_transmit@tempCanMsg^0,w,c
  1782  007FCA  26D9               	addwf	fsr2l,f,c
  1783  007FCC  5014               	movf	(CAN_transmit@tempCanMsg+1)^0,w,c
  1784  007FCE  22DA               	addwfc	fsr2h,f,c
  1785  007FD0  50DF               	movf	indf2,w,c
  1786  007FD2  6FCB               	movwf	203,b	;volatile
  1787  007FD4                     
  1788                           ; BSR set to: 55
  1789                           ;mcc_generated_files/ecan.c: 233:         TXB2D6 = tempCanMsg->frame.data6;
  1790  007FD4  EE20 F00C          	lfsr	2,12
  1791  007FD8  5013               	movf	CAN_transmit@tempCanMsg^0,w,c
  1792  007FDA  26D9               	addwf	fsr2l,f,c
  1793  007FDC  5014               	movf	(CAN_transmit@tempCanMsg+1)^0,w,c
  1794  007FDE  22DA               	addwfc	fsr2h,f,c
  1795  007FE0  50DF               	movf	indf2,w,c
  1796  007FE2  6FCC               	movwf	204,b	;volatile
  1797  007FE4                     
  1798                           ; BSR set to: 55
  1799                           ;mcc_generated_files/ecan.c: 234:         TXB2D7 = tempCanMsg->frame.data7;
  1800  007FE4  EE20 F00D          	lfsr	2,13
  1801  007FE8  5013               	movf	CAN_transmit@tempCanMsg^0,w,c
  1802  007FEA  26D9               	addwf	fsr2l,f,c
  1803  007FEC  5014               	movf	(CAN_transmit@tempCanMsg+1)^0,w,c
  1804  007FEE  22DA               	addwfc	fsr2h,f,c
  1805  007FF0  50DF               	movf	indf2,w,c
  1806  007FF2  6FCD               	movwf	205,b	;volatile
  1807  007FF4                     
  1808                           ; BSR set to: 55
  1809                           ;mcc_generated_files/ecan.c: 236:         TXB2CONbits.TXREQ = 1;
  1810  007FF4  87C0               	bsf	192,3,b	;volatile
  1811  007FF6  EFE5  F03E         	goto	l1833
  1812  007FFA                     l359:
  1813  007FFA                     l363:
  1814                           
  1815                           ; BSR set to: 55
  1816  007FFA  0012               	return		;funcret
  1817  007FFC                     __end_of_CAN_transmit:
  1818                           	callstack 0
  1819                           
  1820 ;; *************** function _convertCANid2Reg *****************
  1821 ;; Defined at:
  1822 ;;		line 402 in file "mcc_generated_files/ecan.c"
  1823 ;; Parameters:    Size  Location     Type
  1824 ;;  tempPassedIn    4    0[COMRAM] unsigned long 
  1825 ;;  canIdType       1    4[COMRAM] unsigned char 
  1826 ;;  passedInEIDH    2    5[COMRAM] PTR unsigned char 
  1827 ;;		 -> CAN_transmit@tempEIDH(1), 
  1828 ;;  passedInEIDL    2    7[COMRAM] PTR unsigned char 
  1829 ;;		 -> CAN_transmit@tempEIDL(1), 
  1830 ;;  passedInSIDH    2    9[COMRAM] PTR unsigned char 
  1831 ;;		 -> CAN_transmit@tempSIDH(1), 
  1832 ;;  passedInSIDL    2   11[COMRAM] PTR unsigned char 
  1833 ;;		 -> CAN_transmit@tempSIDL(1), 
  1834 ;; Auto vars:     Size  Location     Type
  1835 ;;  wipSIDL         1   17[COMRAM] unsigned char 
  1836 ;; Return value:  Size  Location     Type
  1837 ;;                  1    wreg      void 
  1838 ;; Registers used:
  1839 ;;		wreg, fsr2l, fsr2h, status,2, status,0
  1840 ;; Tracked objects:
  1841 ;;		On entry : 0/0
  1842 ;;		On exit  : 0/0
  1843 ;;		Unchanged: 0/0
  1844 ;; Data sizes:     COMRAM   BANK0   BANK1   BANK2   BANK3   BANK4   BANK5   BANK6   BANK7   BANK8   BANK9  BANK10  BANK1
      +1  BANK12  BANK13  BANK14  BANK15
  1845 ;;      Params:        13       0       0       0       0       0       0       0       0       0       0       0       
      +0       0       0       0       0
  1846 ;;      Locals:         1       0       0       0       0       0       0       0       0       0       0       0       
      +0       0       0       0       0
  1847 ;;      Temps:          4       0       0       0       0       0       0       0       0       0       0       0       
      +0       0       0       0       0
  1848 ;;      Totals:        18       0       0       0       0       0       0       0       0       0       0       0       
      +0       0       0       0       0
  1849 ;;Total ram usage:       18 bytes
  1850 ;; Hardware stack levels used: 1
  1851 ;; Hardware stack levels required when called: 3
  1852 ;; This function calls:
  1853 ;;		Nothing
  1854 ;; This function is called by:
  1855 ;;		_CAN_transmit
  1856 ;; This function uses a non-reentrant model
  1857 ;;
  1858                           
  1859                           	psect	text10
  1860  007B0E                     __ptext10:
  1861                           	callstack 0
  1862  007B0E                     _convertCANid2Reg:
  1863                           	callstack 26
  1864  007B0E                     
  1865                           ;mcc_generated_files/ecan.c: 406:     if (canIdType == 2) {
  1866  007B0E  0E02               	movlw	2
  1867  007B10  1805               	xorwf	convertCANid2Reg@canIdType^0,w,c
  1868  007B12  A4D8               	btfss	status,2,c
  1869  007B14  EF8E  F03D         	goto	u271
  1870  007B18  EF90  F03D         	goto	u270
  1871  007B1C                     u271:
  1872  007B1C  EF1E  F03E         	goto	l1777
  1873  007B20                     u270:
  1874  007B20                     
  1875                           ;mcc_generated_files/ecan.c: 409:         *passedInEIDL = 0xFF & tempPassedInID;
  1876  007B20  0060  F023  FFD9   	movff	convertCANid2Reg@passedInEIDL,fsr2l
  1877  007B26  0060  F027  FFDA   	movff	convertCANid2Reg@passedInEIDL+1,fsr2h
  1878  007B2C  0060  F007  FFDF   	movff	convertCANid2Reg@tempPassedInID,indf2
  1879  007B32                     
  1880                           ;mcc_generated_files/ecan.c: 410:         tempPassedInID = tempPassedInID >> 8;
  1881  007B32  C001  F00E         	movff	convertCANid2Reg@tempPassedInID,??_convertCANid2Reg
  1882  007B36  C002  F00F         	movff	convertCANid2Reg@tempPassedInID+1,??_convertCANid2Reg+1
  1883  007B3A  C003  F010         	movff	convertCANid2Reg@tempPassedInID+2,??_convertCANid2Reg+2
  1884  007B3E  C004  F011         	movff	convertCANid2Reg@tempPassedInID+3,??_convertCANid2Reg+3
  1885  007B42  C00F  F00E         	movff	??_convertCANid2Reg+1,??_convertCANid2Reg
  1886  007B46  C010  F00F         	movff	??_convertCANid2Reg+2,??_convertCANid2Reg+1
  1887  007B4A  C011  F010         	movff	??_convertCANid2Reg+3,??_convertCANid2Reg+2
  1888  007B4E  6A11               	clrf	(??_convertCANid2Reg+3)^0,c
  1889  007B50  C00E  F001         	movff	??_convertCANid2Reg,convertCANid2Reg@tempPassedInID
  1890  007B54  C00F  F002         	movff	??_convertCANid2Reg+1,convertCANid2Reg@tempPassedInID+1
  1891  007B58  C010  F003         	movff	??_convertCANid2Reg+2,convertCANid2Reg@tempPassedInID+2
  1892  007B5C  C011  F004         	movff	??_convertCANid2Reg+3,convertCANid2Reg@tempPassedInID+3
  1893  007B60                     
  1894                           ;mcc_generated_files/ecan.c: 413:         *passedInEIDH = 0xFF & tempPassedInID;
  1895  007B60  0060  F01B  FFD9   	movff	convertCANid2Reg@passedInEIDH,fsr2l
  1896  007B66  0060  F01F  FFDA   	movff	convertCANid2Reg@passedInEIDH+1,fsr2h
  1897  007B6C  0060  F007  FFDF   	movff	convertCANid2Reg@tempPassedInID,indf2
  1898                           
  1899                           ;mcc_generated_files/ecan.c: 414:         tempPassedInID = tempPassedInID >> 8;
  1900  007B72  C001  F00E         	movff	convertCANid2Reg@tempPassedInID,??_convertCANid2Reg
  1901  007B76  C002  F00F         	movff	convertCANid2Reg@tempPassedInID+1,??_convertCANid2Reg+1
  1902  007B7A  C003  F010         	movff	convertCANid2Reg@tempPassedInID+2,??_convertCANid2Reg+2
  1903  007B7E  C004  F011         	movff	convertCANid2Reg@tempPassedInID+3,??_convertCANid2Reg+3
  1904  007B82  C00F  F00E         	movff	??_convertCANid2Reg+1,??_convertCANid2Reg
  1905  007B86  C010  F00F         	movff	??_convertCANid2Reg+2,??_convertCANid2Reg+1
  1906  007B8A  C011  F010         	movff	??_convertCANid2Reg+3,??_convertCANid2Reg+2
  1907  007B8E  6A11               	clrf	(??_convertCANid2Reg+3)^0,c
  1908  007B90  C00E  F001         	movff	??_convertCANid2Reg,convertCANid2Reg@tempPassedInID
  1909  007B94  C00F  F002         	movff	??_convertCANid2Reg+1,convertCANid2Reg@tempPassedInID+1
  1910  007B98  C010  F003         	movff	??_convertCANid2Reg+2,convertCANid2Reg@tempPassedInID+2
  1911  007B9C  C011  F004         	movff	??_convertCANid2Reg+3,convertCANid2Reg@tempPassedInID+3
  1912  007BA0                     
  1913                           ;mcc_generated_files/ecan.c: 418:         wipSIDL = 0x03 & tempPassedInID;
  1914  007BA0  5001               	movf	convertCANid2Reg@tempPassedInID^0,w,c
  1915  007BA2  0B03               	andlw	3
  1916  007BA4  6E12               	movwf	convertCANid2Reg@wipSIDL^0,c
  1917  007BA6                     
  1918                           ;mcc_generated_files/ecan.c: 419:         tempPassedInID = tempPassedInID << 3;
  1919  007BA6  C001  F00E         	movff	convertCANid2Reg@tempPassedInID,??_convertCANid2Reg
  1920  007BAA  C002  F00F         	movff	convertCANid2Reg@tempPassedInID+1,??_convertCANid2Reg+1
  1921  007BAE  C003  F010         	movff	convertCANid2Reg@tempPassedInID+2,??_convertCANid2Reg+2
  1922  007BB2  C004  F011         	movff	convertCANid2Reg@tempPassedInID+3,??_convertCANid2Reg+3
  1923  007BB6  0E03               	movlw	3
  1924  007BB8                     u285:
  1925  007BB8  90D8               	bcf	status,0,c
  1926  007BBA  360E               	rlcf	??_convertCANid2Reg^0,f,c
  1927  007BBC  360F               	rlcf	(??_convertCANid2Reg+1)^0,f,c
  1928  007BBE  3610               	rlcf	(??_convertCANid2Reg+2)^0,f,c
  1929  007BC0  3611               	rlcf	(??_convertCANid2Reg+3)^0,f,c
  1930  007BC2  2EE8               	decfsz	wreg,f,c
  1931  007BC4  EFDC  F03D         	goto	u285
  1932  007BC8  C00E  F001         	movff	??_convertCANid2Reg,convertCANid2Reg@tempPassedInID
  1933  007BCC  C00F  F002         	movff	??_convertCANid2Reg+1,convertCANid2Reg@tempPassedInID+1
  1934  007BD0  C010  F003         	movff	??_convertCANid2Reg+2,convertCANid2Reg@tempPassedInID+2
  1935  007BD4  C011  F004         	movff	??_convertCANid2Reg+3,convertCANid2Reg@tempPassedInID+3
  1936  007BD8                     
  1937                           ;mcc_generated_files/ecan.c: 420:         wipSIDL = (0xE0 & tempPassedInID) + wipSIDL;
  1938  007BD8  5001               	movf	convertCANid2Reg@tempPassedInID^0,w,c
  1939  007BDA  0BE0               	andlw	224
  1940  007BDC  2412               	addwf	convertCANid2Reg@wipSIDL^0,w,c
  1941  007BDE  6E12               	movwf	convertCANid2Reg@wipSIDL^0,c
  1942  007BE0                     
  1943                           ;mcc_generated_files/ecan.c: 421:         wipSIDL = (uint8_t)(wipSIDL + 0x08);
  1944  007BE0  5012               	movf	convertCANid2Reg@wipSIDL^0,w,c
  1945  007BE2  0F08               	addlw	8
  1946  007BE4  6E12               	movwf	convertCANid2Reg@wipSIDL^0,c
  1947  007BE6                     
  1948                           ;mcc_generated_files/ecan.c: 422:         *passedInSIDL = (uint8_t)(0xEB & wipSIDL);
  1949  007BE6  5012               	movf	convertCANid2Reg@wipSIDL^0,w,c
  1950  007BE8  0BEB               	andlw	235
  1951  007BEA  0060  F033  FFD9   	movff	convertCANid2Reg@passedInSIDL,fsr2l
  1952  007BF0  0060  F037  FFDA   	movff	convertCANid2Reg@passedInSIDL+1,fsr2h
  1953  007BF6  6EDF               	movwf	indf2,c
  1954  007BF8                     l1773:
  1955                           
  1956                           ;mcc_generated_files/ecan.c: 425:         tempPassedInID = tempPassedInID >> 8;
  1957  007BF8  C001  F00E         	movff	convertCANid2Reg@tempPassedInID,??_convertCANid2Reg
  1958  007BFC  C002  F00F         	movff	convertCANid2Reg@tempPassedInID+1,??_convertCANid2Reg+1
  1959  007C00  C003  F010         	movff	convertCANid2Reg@tempPassedInID+2,??_convertCANid2Reg+2
  1960  007C04  C004  F011         	movff	convertCANid2Reg@tempPassedInID+3,??_convertCANid2Reg+3
  1961  007C08  C00F  F00E         	movff	??_convertCANid2Reg+1,??_convertCANid2Reg
  1962  007C0C  C010  F00F         	movff	??_convertCANid2Reg+2,??_convertCANid2Reg+1
  1963  007C10  C011  F010         	movff	??_convertCANid2Reg+3,??_convertCANid2Reg+2
  1964  007C14  6A11               	clrf	(??_convertCANid2Reg+3)^0,c
  1965  007C16  C00E  F001         	movff	??_convertCANid2Reg,convertCANid2Reg@tempPassedInID
  1966  007C1A  C00F  F002         	movff	??_convertCANid2Reg+1,convertCANid2Reg@tempPassedInID+1
  1967  007C1E  C010  F003         	movff	??_convertCANid2Reg+2,convertCANid2Reg@tempPassedInID+2
  1968  007C22  C011  F004         	movff	??_convertCANid2Reg+3,convertCANid2Reg@tempPassedInID+3
  1969  007C26                     
  1970                           ;mcc_generated_files/ecan.c: 426:         *passedInSIDH = 0xFF & tempPassedInID;
  1971  007C26  0060  F02B  FFD9   	movff	convertCANid2Reg@passedInSIDH,fsr2l
  1972  007C2C  0060  F02F  FFDA   	movff	convertCANid2Reg@passedInSIDH+1,fsr2h
  1973  007C32  0060  F007  FFDF   	movff	convertCANid2Reg@tempPassedInID,indf2
  1974                           
  1975                           ;mcc_generated_files/ecan.c: 427:     }
  1976  007C38  EF52  F03E         	goto	l401
  1977  007C3C                     l1777:
  1978                           
  1979                           ;mcc_generated_files/ecan.c: 429:     {;mcc_generated_files/ecan.c: 430:         *passed
      +                          InEIDH = 0;
  1980  007C3C  0060  F01B  FFD9   	movff	convertCANid2Reg@passedInEIDH,fsr2l
  1981  007C42  0060  F01F  FFDA   	movff	convertCANid2Reg@passedInEIDH+1,fsr2h
  1982  007C48  0E00               	movlw	0
  1983  007C4A  6EDF               	movwf	indf2,c
  1984                           
  1985                           ;mcc_generated_files/ecan.c: 431:         *passedInEIDL = 0;
  1986  007C4C  0060  F023  FFD9   	movff	convertCANid2Reg@passedInEIDL,fsr2l
  1987  007C52  0060  F027  FFDA   	movff	convertCANid2Reg@passedInEIDL+1,fsr2h
  1988  007C58  0E00               	movlw	0
  1989  007C5A  6EDF               	movwf	indf2,c
  1990  007C5C                     
  1991                           ;mcc_generated_files/ecan.c: 432:         tempPassedInID = tempPassedInID << 5;
  1992  007C5C  C001  F00E         	movff	convertCANid2Reg@tempPassedInID,??_convertCANid2Reg
  1993  007C60  C002  F00F         	movff	convertCANid2Reg@tempPassedInID+1,??_convertCANid2Reg+1
  1994  007C64  C003  F010         	movff	convertCANid2Reg@tempPassedInID+2,??_convertCANid2Reg+2
  1995  007C68  C004  F011         	movff	convertCANid2Reg@tempPassedInID+3,??_convertCANid2Reg+3
  1996  007C6C  0E05               	movlw	5
  1997  007C6E                     u295:
  1998  007C6E  90D8               	bcf	status,0,c
  1999  007C70  360E               	rlcf	??_convertCANid2Reg^0,f,c
  2000  007C72  360F               	rlcf	(??_convertCANid2Reg+1)^0,f,c
  2001  007C74  3610               	rlcf	(??_convertCANid2Reg+2)^0,f,c
  2002  007C76  3611               	rlcf	(??_convertCANid2Reg+3)^0,f,c
  2003  007C78  2EE8               	decfsz	wreg,f,c
  2004  007C7A  EF37  F03E         	goto	u295
  2005  007C7E  C00E  F001         	movff	??_convertCANid2Reg,convertCANid2Reg@tempPassedInID
  2006  007C82  C00F  F002         	movff	??_convertCANid2Reg+1,convertCANid2Reg@tempPassedInID+1
  2007  007C86  C010  F003         	movff	??_convertCANid2Reg+2,convertCANid2Reg@tempPassedInID+2
  2008  007C8A  C011  F004         	movff	??_convertCANid2Reg+3,convertCANid2Reg@tempPassedInID+3
  2009  007C8E                     
  2010                           ;mcc_generated_files/ecan.c: 433:         *passedInSIDL = 0xFF & tempPassedInID;
  2011  007C8E  0060  F033  FFD9   	movff	convertCANid2Reg@passedInSIDL,fsr2l
  2012  007C94  0060  F037  FFDA   	movff	convertCANid2Reg@passedInSIDL+1,fsr2h
  2013  007C9A  0060  F007  FFDF   	movff	convertCANid2Reg@tempPassedInID,indf2
  2014  007CA0  EFFC  F03D         	goto	l1773
  2015  007CA4                     l401:
  2016  007CA4  0012               	return		;funcret
  2017  007CA6                     __end_of_convertCANid2Reg:
  2018                           	callstack 0
  2019                           
  2020 ;; *************** function _ADCC_GetSingleConversion *****************
  2021 ;; Defined at:
  2022 ;;		line 137 in file "mcc_generated_files/adcc.c"
  2023 ;; Parameters:    Size  Location     Type
  2024 ;;  channel         1    wreg     enum E22597
  2025 ;; Auto vars:     Size  Location     Type
  2026 ;;  channel         1    4[COMRAM] enum E22597
  2027 ;; Return value:  Size  Location     Type
  2028 ;;                  2    0[COMRAM] unsigned short 
  2029 ;; Registers used:
  2030 ;;		wreg, status,2, status,0
  2031 ;; Tracked objects:
  2032 ;;		On entry : 0/0
  2033 ;;		On exit  : 0/0
  2034 ;;		Unchanged: 0/0
  2035 ;; Data sizes:     COMRAM   BANK0   BANK1   BANK2   BANK3   BANK4   BANK5   BANK6   BANK7   BANK8   BANK9  BANK10  BANK1
      +1  BANK12  BANK13  BANK14  BANK15
  2036 ;;      Params:         2       0       0       0       0       0       0       0       0       0       0       0       
      +0       0       0       0       0
  2037 ;;      Locals:         1       0       0       0       0       0       0       0       0       0       0       0       
      +0       0       0       0       0
  2038 ;;      Temps:          2       0       0       0       0       0       0       0       0       0       0       0       
      +0       0       0       0       0
  2039 ;;      Totals:         5       0       0       0       0       0       0       0       0       0       0       0       
      +0       0       0       0       0
  2040 ;;Total ram usage:        5 bytes
  2041 ;; Hardware stack levels used: 1
  2042 ;; Hardware stack levels required when called: 3
  2043 ;; This function calls:
  2044 ;;		Nothing
  2045 ;; This function is called by:
  2046 ;;		_main
  2047 ;; This function uses a non-reentrant model
  2048 ;;
  2049                           
  2050                           	psect	text11
  2051  0078D0                     __ptext11:
  2052                           	callstack 0
  2053  0078D0                     _ADCC_GetSingleConversion:
  2054                           	callstack 27
  2055                           
  2056                           ;incstack = 0
  2057                           ;ADCC_GetSingleConversion@channel stored from wreg
  2058  0078D0  6E05               	movwf	ADCC_GetSingleConversion@channel^0,c
  2059  0078D2                     
  2060                           ;mcc_generated_files/adcc.c: 137: adc_result_t ADCC_GetSingleConversion(adcc_channel_t c
      +                          hannel);mcc_generated_files/adcc.c: 138: {;mcc_generated_files/adcc.c: 140:     ADPCH = 
      +                          channel;
  2061  0078D2  0060  F017  FEF1   	movff	ADCC_GetSingleConversion@channel,16113	;volatile
  2062  0078D8                     
  2063                           ;mcc_generated_files/adcc.c: 143:     ADCON0bits.ADON = 1;
  2064  0078D8  013E               	movlb	62	; () banked
  2065  0078DA  8FF8               	bsf	248,7,b	;volatile
  2066  0078DC                     
  2067                           ; BSR set to: 62
  2068                           ;mcc_generated_files/adcc.c: 146:     ADCON0bits.ADCONT = 0;
  2069  0078DC  9DF8               	bcf	248,6,b	;volatile
  2070  0078DE                     
  2071                           ; BSR set to: 62
  2072                           ;mcc_generated_files/adcc.c: 149:     ADCON0bits.ADGO = 1;
  2073  0078DE  81F8               	bsf	248,0,b	;volatile
  2074  0078E0                     l516:
  2075                           
  2076                           ; BSR set to: 62
  2077                           ;mcc_generated_files/adcc.c: 153:     while (ADCON0bits.ADGO)
  2078  0078E0  B1F8               	btfsc	248,0,b	;volatile
  2079  0078E2  EF75  F03C         	goto	u331
  2080  0078E6  EF77  F03C         	goto	u330
  2081  0078EA                     u331:
  2082  0078EA  EF70  F03C         	goto	l516
  2083  0078EE                     u330:
  2084  0078EE                     
  2085                           ; BSR set to: 62
  2086                           ;mcc_generated_files/adcc.c: 159:     return ((adc_result_t)((ADRESH << 8) + ADRESL));
  2087  0078EE  51F0               	movf	240,w,b	;volatile
  2088  0078F0  6E04               	movwf	(??_ADCC_GetSingleConversion+1)^0,c
  2089  0078F2  6A03               	clrf	??_ADCC_GetSingleConversion^0,c
  2090  0078F4  51EF               	movf	239,w,b	;volatile
  2091  0078F6  2403               	addwf	??_ADCC_GetSingleConversion^0,w,c
  2092  0078F8  6E01               	movwf	?_ADCC_GetSingleConversion^0,c
  2093  0078FA  0E00               	movlw	0
  2094  0078FC  2004               	addwfc	(??_ADCC_GetSingleConversion+1)^0,w,c
  2095  0078FE  6E02               	movwf	(?_ADCC_GetSingleConversion+1)^0,c
  2096  007900                     
  2097                           ; BSR set to: 62
  2098  007900  0012               	return		;funcret
  2099  007902                     __end_of_ADCC_GetSingleConversion:
  2100                           	callstack 0
  2101                           
  2102 ;; *************** function _INTERRUPT_InterruptManager *****************
  2103 ;; Defined at:
  2104 ;;		line 58 in file "mcc_generated_files/interrupt_manager.c"
  2105 ;; Parameters:    Size  Location     Type
  2106 ;;		None
  2107 ;; Auto vars:     Size  Location     Type
  2108 ;;		None
  2109 ;; Return value:  Size  Location     Type
  2110 ;;                  1    wreg      void 
  2111 ;; Registers used:
  2112 ;;		wreg, pclath, tosl, cstack
  2113 ;; Tracked objects:
  2114 ;;		On entry : 0/0
  2115 ;;		On exit  : 0/0
  2116 ;;		Unchanged: 0/0
  2117 ;; Data sizes:     COMRAM   BANK0   BANK1   BANK2   BANK3   BANK4   BANK5   BANK6   BANK7   BANK8   BANK9  BANK10  BANK1
      +1  BANK12  BANK13  BANK14  BANK15
  2118 ;;      Params:         0       0       0       0       0       0       0       0       0       0       0       0       
      +0       0       0       0       0
  2119 ;;      Locals:         0       0       0       0       0       0       0       0       0       0       0       0       
      +0       0       0       0       0
  2120 ;;      Temps:          0       0       0       0       0       0       0       0       0       0       0       0       
      +0       0       0       0       0
  2121 ;;      Totals:         0       0       0       0       0       0       0       0       0       0       0       0       
      +0       0       0       0       0
  2122 ;;Total ram usage:        0 bytes
  2123 ;; Hardware stack levels used: 1
  2124 ;; Hardware stack levels required when called: 2
  2125 ;; This function calls:
  2126 ;;		_ECAN_WAKI_ISR
  2127 ;; This function is called by:
  2128 ;;		Interrupt level 2
  2129 ;; This function uses a non-reentrant model
  2130 ;;
  2131                           
  2132                           	psect	text12
  2133  007888                     __ptext12:
  2134                           	callstack 0
  2135  007888                     _INTERRUPT_InterruptManager:
  2136                           	callstack 25
  2137  007888                     
  2138                           ;mcc_generated_files/interrupt_manager.c: 61:     if(PIE5bits.WAKIE == 1 && PIR5bits.WAK
      +                          IF == 1)
  2139  007888  0139               	movlb	57	; () banked
  2140  00788A  AD95               	btfss	149,6,b	;volatile
  2141  00788C  EF4A  F03C         	goto	i2u23_41
  2142  007890  EF4C  F03C         	goto	i2u23_40
  2143  007894                     i2u23_41:
  2144  007894  EF55  F03C         	goto	i2l425
  2145  007898                     i2u23_40:
  2146  007898                     
  2147                           ; BSR set to: 57
  2148  007898  ADA5               	btfss	165,6,b	;volatile
  2149  00789A  EF51  F03C         	goto	i2u24_41
  2150  00789E  EF53  F03C         	goto	i2u24_40
  2151  0078A2                     i2u24_41:
  2152  0078A2  EF55  F03C         	goto	i2l425
  2153  0078A6                     i2u24_40:
  2154  0078A6                     
  2155                           ; BSR set to: 57
  2156                           ;mcc_generated_files/interrupt_manager.c: 62:     {;mcc_generated_files/interrupt_manage
      +                          r.c: 63:         ECAN_WAKI_ISR();
  2157  0078A6  EC34  F03C         	call	_ECAN_WAKI_ISR	;wreg free
  2158  0078AA                     i2l425:
  2159  0078AA  0011               	retfie		f
  2160  0078AC                     __end_of_INTERRUPT_InterruptManager:
  2161                           	callstack 0
  2162                           
  2163 ;; *************** function _ECAN_WAKI_ISR *****************
  2164 ;; Defined at:
  2165 ;;		line 444 in file "mcc_generated_files/ecan.c"
  2166 ;; Parameters:    Size  Location     Type
  2167 ;;		None
  2168 ;; Auto vars:     Size  Location     Type
  2169 ;;		None
  2170 ;; Return value:  Size  Location     Type
  2171 ;;                  1    wreg      void 
  2172 ;; Registers used:
  2173 ;;		wreg, pclath, tosl, cstack
  2174 ;; Tracked objects:
  2175 ;;		On entry : 0/0
  2176 ;;		On exit  : 0/0
  2177 ;;		Unchanged: 0/0
  2178 ;; Data sizes:     COMRAM   BANK0   BANK1   BANK2   BANK3   BANK4   BANK5   BANK6   BANK7   BANK8   BANK9  BANK10  BANK1
      +1  BANK12  BANK13  BANK14  BANK15
  2179 ;;      Params:         0       0       0       0       0       0       0       0       0       0       0       0       
      +0       0       0       0       0
  2180 ;;      Locals:         0       0       0       0       0       0       0       0       0       0       0       0       
      +0       0       0       0       0
  2181 ;;      Temps:          0       0       0       0       0       0       0       0       0       0       0       0       
      +0       0       0       0       0
  2182 ;;      Totals:         0       0       0       0       0       0       0       0       0       0       0       0       
      +0       0       0       0       0
  2183 ;;Total ram usage:        0 bytes
  2184 ;; Hardware stack levels used: 1
  2185 ;; Hardware stack levels required when called: 1
  2186 ;; This function calls:
  2187 ;;		Absolute function
  2188 ;;		_WakeUpDefaultInterruptHandler
  2189 ;; This function is called by:
  2190 ;;		_INTERRUPT_InterruptManager
  2191 ;; This function uses a non-reentrant model
  2192 ;;
  2193                           
  2194                           	psect	text13
  2195  007868                     __ptext13:
  2196                           	callstack 0
  2197  007868                     _ECAN_WAKI_ISR:
  2198                           	callstack 25
  2199  007868                     
  2200                           ;mcc_generated_files/ecan.c: 446:     WakeUpInterruptHandler();
  2201  007868  D802               	call	i2u9_48
  2202  00786A  EF41  F03C         	goto	i2u9_49
  2203  00786E                     i2u9_48:
  2204  00786E  0005               	push	
  2205  007870  6EFA               	movwf	pclath,c
  2206  007872  502F               	movf	_WakeUpInterruptHandler^0,w,c
  2207  007874  6EFD               	movwf	tosl,c
  2208  007876  5030               	movf	(_WakeUpInterruptHandler+1)^0,w,c
  2209  007878  6EFE               	movwf	tosh,c
  2210  00787A  50F8               	movf	tblptru,w,c
  2211  00787C  6EFF               	movwf	tosu,c
  2212  00787E  50FA               	movf	pclath,w,c
  2213  007880  0012               	return		;indir
  2214  007882                     i2u9_49:
  2215  007882                     
  2216                           ;mcc_generated_files/ecan.c: 447:     PIR5bits.WAKIF = 0;
  2217  007882  0139               	movlb	57	; () banked
  2218  007884  9DA5               	bcf	165,6,b	;volatile
  2219  007886                     
  2220                           ; BSR set to: 57
  2221  007886  0012               	return		;funcret
  2222  007888                     __end_of_ECAN_WAKI_ISR:
  2223                           	callstack 0
  2224                           
  2225 ;; *************** function _WakeUpDefaultInterruptHandler *****************
  2226 ;; Defined at:
  2227 ;;		line 63 in file "mcc_generated_files/ecan.c"
  2228 ;; Parameters:    Size  Location     Type
  2229 ;;		None
  2230 ;; Auto vars:     Size  Location     Type
  2231 ;;		None
  2232 ;; Return value:  Size  Location     Type
  2233 ;;                  1    wreg      void 
  2234 ;; Registers used:
  2235 ;;		None
  2236 ;; Tracked objects:
  2237 ;;		On entry : 0/0
  2238 ;;		On exit  : 0/0
  2239 ;;		Unchanged: 0/0
  2240 ;; Data sizes:     COMRAM   BANK0   BANK1   BANK2   BANK3   BANK4   BANK5   BANK6   BANK7   BANK8   BANK9  BANK10  BANK1
      +1  BANK12  BANK13  BANK14  BANK15
  2241 ;;      Params:         0       0       0       0       0       0       0       0       0       0       0       0       
      +0       0       0       0       0
  2242 ;;      Locals:         0       0       0       0       0       0       0       0       0       0       0       0       
      +0       0       0       0       0
  2243 ;;      Temps:          0       0       0       0       0       0       0       0       0       0       0       0       
      +0       0       0       0       0
  2244 ;;      Totals:         0       0       0       0       0       0       0       0       0       0       0       0       
      +0       0       0       0       0
  2245 ;;Total ram usage:        0 bytes
  2246 ;; Hardware stack levels used: 1
  2247 ;; This function calls:
  2248 ;;		Nothing
  2249 ;; This function is called by:
  2250 ;;		_ECAN_Initialize
  2251 ;;		_ECAN_WAKI_ISR
  2252 ;; This function uses a non-reentrant model
  2253 ;;
  2254                           
  2255                           	psect	text14
  2256  00780C                     __ptext14:
  2257                           	callstack 0
  2258  00780C                     _WakeUpDefaultInterruptHandler:
  2259                           	callstack 25
  2260  00780C  0012               	return		;funcret
  2261  00780E                     __end_of_WakeUpDefaultInterruptHandler:
  2262                           	callstack 0
  2263                           
  2264                           ;
  2265                           ; Interrupt Vector Table @ 0x8
  2266                           ;
  2267                           
  2268                           	psect	ivt0x8
  2269  000008                     __pivt0x8:
  2270                           	callstack 0
  2271  000008                     ivt0x8_base:
  2272                           	callstack 0
  2273                           
  2274                           ; high-priority vector
  2275  000008  EF44  F03C         	goto	_INTERRUPT_InterruptManager
  2276  000018                     	org	16
  2277                           
  2278                           ; low-priority vector
  2279  000018  00FF               	reset	
  2280  0000                     
  2281                           	psect	text15
  2282  000000                     __ptext15:
  2283                           	callstack 0
  2284  000000                     
  2285                           	psect	rparam
  2286  0000                     
  2287                           	psect	idloc
  2288                           
  2289                           ;Config register IDLOC0 @ 0x200000
  2290                           ;	unspecified, using default values
  2291  200000                     	org	2097152
  2292  200000  0FFF               	dw	4095
  2293                           
  2294                           ;Config register IDLOC1 @ 0x200002
  2295                           ;	unspecified, using default values
  2296  200002                     	org	2097154
  2297  200002  0FFF               	dw	4095
  2298                           
  2299                           ;Config register IDLOC2 @ 0x200004
  2300                           ;	unspecified, using default values
  2301  200004                     	org	2097156
  2302  200004  0FFF               	dw	4095
  2303                           
  2304                           ;Config register IDLOC3 @ 0x200006
  2305                           ;	unspecified, using default values
  2306  200006                     	org	2097158
  2307  200006  0FFF               	dw	4095
  2308                           
  2309                           ;Config register IDLOC4 @ 0x200008
  2310                           ;	unspecified, using default values
  2311  200008                     	org	2097160
  2312  200008  0FFF               	dw	4095
  2313                           
  2314                           ;Config register IDLOC5 @ 0x20000A
  2315                           ;	unspecified, using default values
  2316  20000A                     	org	2097162
  2317  20000A  0FFF               	dw	4095
  2318                           
  2319                           ;Config register IDLOC6 @ 0x20000C
  2320                           ;	unspecified, using default values
  2321  20000C                     	org	2097164
  2322  20000C  0FFF               	dw	4095
  2323                           
  2324                           ;Config register IDLOC7 @ 0x20000E
  2325                           ;	unspecified, using default values
  2326  20000E                     	org	2097166
  2327  20000E  0FFF               	dw	4095
  2328                           
  2329                           	psect	config
  2330                           
  2331                           ;Config register CONFIG1L @ 0x300000
  2332                           ;	External Oscillator Selection
  2333                           ;	FEXTOSC = OFF, Oscillator not enabled
  2334                           ;	Reset Oscillator Selection
  2335                           ;	RSTOSC = HFINTOSC_64MHZ, HFINTOSC with HFFRQ = 64 MHz and CDIV = 1:1
  2336  300000                     	org	3145728
  2337  300000  8C                 	db	140
  2338                           
  2339                           ;Config register CONFIG1H @ 0x300001
  2340                           ;	Clock out Enable bit
  2341                           ;	CLKOUTEN = OFF, CLKOUT function is disabled
  2342                           ;	PRLOCKED One-Way Set Enable bit
  2343                           ;	PR1WAY = ON, PRLOCK bit can be cleared and set only once
  2344                           ;	Clock Switch Enable bit
  2345                           ;	CSWEN = ON, Writing to NOSC and NDIV is allowed
  2346                           ;	Fail-Safe Clock Monitor Enable bit
  2347                           ;	FCMEN = ON, Fail-Safe Clock Monitor enabled
  2348  300001                     	org	3145729
  2349  300001  FF                 	db	255
  2350                           
  2351                           ;Config register CONFIG2L @ 0x300002
  2352                           ;	MCLR Enable bit
  2353                           ;	MCLRE = EXTMCLR, If LVP = 0, MCLR pin is MCLR; If LVP = 1, RE3 pin function is MCLR
  2354                           ;	Power-up timer selection bits
  2355                           ;	PWRTS = PWRT_OFF, PWRT is disabled
  2356                           ;	Multi-vector enable bit
  2357                           ;	MVECEN = OFF, Interrupt contoller does not use vector table to prioritze interrupts
  2358                           ;	IVTLOCK bit One-way set enable bit
  2359                           ;	IVT1WAY = ON, IVTLOCK bit can be cleared and set only once
  2360                           ;	Low Power BOR Enable bit
  2361                           ;	LPBOREN = OFF, ULPBOR disabled
  2362                           ;	Brown-out Reset Enable bits
  2363                           ;	BOREN = SBORDIS, Brown-out Reset enabled , SBOREN bit is ignored
  2364  300002                     	org	3145730
  2365  300002  F7                 	db	247
  2366                           
  2367                           ;Config register CONFIG2H @ 0x300003
  2368                           ;	Brown-out Reset Voltage Selection bits
  2369                           ;	BORV = VBOR_2P45, Brown-out Reset Voltage (VBOR) set to 2.45V
  2370                           ;	ZCD Disable bit
  2371                           ;	ZCD = OFF, ZCD disabled. ZCD can be enabled by setting the ZCDSEN bit of ZCDCON
  2372                           ;	PPSLOCK bit One-Way Set Enable bit
  2373                           ;	PPS1WAY = ON, PPSLOCK bit can be cleared and set only once; PPS registers remain locke
      +                          d after one clear/set cycle
  2374                           ;	Stack Full/Underflow Reset Enable bit
  2375                           ;	STVREN = ON, Stack full/underflow will cause Reset
  2376                           ;	Debugger Enable bit
  2377                           ;	DEBUG = OFF, Background debugger disabled
  2378                           ;	Extended Instruction Set Enable bit
  2379                           ;	XINST = OFF, Extended Instruction Set and Indexed Addressing Mode disabled
  2380  300003                     	org	3145731
  2381  300003  FF                 	db	255
  2382                           
  2383                           ;Config register CONFIG3L @ 0x300004
  2384                           ;	WDT Period selection bits
  2385                           ;	WDTCPS = WDTCPS_31, Divider ratio 1:65536; software control of WDTPS
  2386                           ;	WDT operating mode
  2387                           ;	WDTE = OFF, WDT Disabled; SWDTEN is ignored
  2388  300004                     	org	3145732
  2389  300004  9F                 	db	159
  2390                           
  2391                           ;Config register CONFIG3H @ 0x300005
  2392                           ;	WDT Window Select bits
  2393                           ;	WDTCWS = WDTCWS_7, window always open (100%); software control; keyed access not requi
      +                          red
  2394                           ;	WDT input clock selector
  2395                           ;	WDTCCS = SC, Software Control
  2396  300005                     	org	3145733
  2397  300005  FF                 	db	255
  2398                           
  2399                           ;Config register CONFIG4L @ 0x300006
  2400                           ;	Boot Block Size selection bits
  2401                           ;	BBSIZE = BBSIZE_512, Boot Block size is 512 words
  2402                           ;	Boot Block enable bit
  2403                           ;	BBEN = OFF, Boot block disabled
  2404                           ;	Storage Area Flash enable bit
  2405                           ;	SAFEN = OFF, SAF disabled
  2406                           ;	Application Block write protection bit
  2407                           ;	WRTAPP = OFF, Application Block not write protected
  2408  300006                     	org	3145734
  2409  300006  FF                 	db	255
  2410                           
  2411                           ;Config register CONFIG4H @ 0x300007
  2412                           ;	Configuration Register Write Protection bit
  2413                           ;	WRTB = OFF, Configuration registers (300000-30000Bh) not write-protected
  2414                           ;	Boot Block Write Protection bit
  2415                           ;	WRTC = OFF, Boot Block (000000-0007FFh) not write-protected
  2416                           ;	Data EEPROM Write Protection bit
  2417                           ;	WRTD = OFF, Data EEPROM not write-protected
  2418                           ;	SAF Write protection bit
  2419                           ;	WRTSAF = OFF, SAF not Write Protected
  2420                           ;	Low Voltage Programming Enable bit
  2421                           ;	LVP = ON, Low voltage programming enabled. MCLR/VPP pin function is MCLR. MCLRE config
      +                          uration bit is ignored
  2422  300007                     	org	3145735
  2423  300007  FF                 	db	255
  2424                           
  2425                           ;Config register CONFIG5L @ 0x300008
  2426                           ;	PFM and Data EEPROM Code Protection bit
  2427                           ;	CP = OFF, PFM and Data EEPROM code protection disabled
  2428  300008                     	org	3145736
  2429  300008  FF                 	db	255
  2430                           
  2431                           ;Config register CONFIG5H @ 0x300009
  2432                           ;	unspecified, using default values
  2433  300009                     	org	3145737
  2434  300009  FF                 	db	255
  2435                           tosu	equ	0x3FFF
  2436                           tosh	equ	0x3FFE
  2437                           tosl	equ	0x3FFD
  2438                           stkptr	equ	0x3FFC
  2439                           pclatu	equ	0x3FFB
  2440                           pclath	equ	0x3FFA
  2441                           pcl	equ	0x3FF9
  2442                           tblptru	equ	0x3FF8
  2443                           tblptrh	equ	0x3FF7
  2444                           tblptrl	equ	0x3FF6
  2445                           tablat	equ	0x3FF5
  2446                           prodh	equ	0x3FF4
  2447                           prodl	equ	0x3FF3
  2448                           indf0	equ	0x3FEF
  2449                           postinc0	equ	0x3FEE
  2450                           postdec0	equ	0x3FED
  2451                           preinc0	equ	0x3FEC
  2452                           plusw0	equ	0x3FEB
  2453                           fsr0h	equ	0x3FEA
  2454                           fsr0l	equ	0x3FE9
  2455                           wreg	equ	0x3FE8
  2456                           indf1	equ	0x3FE7
  2457                           postinc1	equ	0x3FE6
  2458                           postdec1	equ	0x3FE5
  2459                           preinc1	equ	0x3FE4
  2460                           plusw1	equ	0x3FE3
  2461                           fsr1h	equ	0x3FE2
  2462                           fsr1l	equ	0x3FE1
  2463                           bsr	equ	0x3FE0
  2464                           indf2	equ	0x3FDF
  2465                           postinc2	equ	0x3FDE
  2466                           postdec2	equ	0x3FDD
  2467                           preinc2	equ	0x3FDC
  2468                           plusw2	equ	0x3FDB
  2469                           fsr2h	equ	0x3FDA
  2470                           fsr2l	equ	0x3FD9
  2471                           status	equ	0x3FD8

Data Sizes:
    Strings     0
    Constant    0
    Data        0
    BSS         2
    Persistent  0
    Stack       0

Auto Spaces:
    Space          Size  Autos    Used
    COMRAM           95     46      48
    BANK0           160      0       0
    BANK1           256      0       0
    BANK2           256      0       0
    BANK3           256      0       0
    BANK4           256      0       0
    BANK5           256      0       0
    BANK6           256      0       0
    BANK7           256      0       0
    BANK8           256      0       0
    BANK9           256      0       0
    BANK10          256      0       0
    BANK11          256      0       0
    BANK12          256      0       0
    BANK13          256      0       0
    BANK14          256      0       0
    BANK15          256      0       0

Pointer List with Targets:

    ECAN_SetWakeUpInterruptHandler@handler	PTR FTN()void  size(2) Largest target is 1
		 -> WakeUpDefaultInterruptHandler(), 

    WakeUpInterruptHandler	PTR FTN()void  size(2) Largest target is 1
		 -> Absolute function(), WakeUpDefaultInterruptHandler(), 

    convertCANid2Reg@passedInSIDH	PTR unsigned char  size(2) Largest target is 1
		 -> CAN_transmit@tempSIDH(COMRAM[1]), 

    convertCANid2Reg@passedInSIDL	PTR unsigned char  size(2) Largest target is 1
		 -> CAN_transmit@tempSIDL(COMRAM[1]), 

    convertCANid2Reg@passedInEIDH	PTR unsigned char  size(2) Largest target is 1
		 -> CAN_transmit@tempEIDH(COMRAM[1]), 

    convertCANid2Reg@passedInEIDL	PTR unsigned char  size(2) Largest target is 1
		 -> CAN_transmit@tempEIDL(COMRAM[1]), 

    CAN_transmit@tempCanMsg	PTR struct . size(2) Largest target is 14
		 -> main@CanCurrentData(COMRAM[14]), 


Critical Paths under _main in COMRAM

    _main->_CAN_transmit
    _SYSTEM_Initialize->_ECAN_Initialize
    _ECAN_Initialize->_ECAN_SetWakeUpInterruptHandler
    _CAN_transmit->_convertCANid2Reg

Critical Paths under _INTERRUPT_InterruptManager in COMRAM

    None.

Critical Paths under _main in BANK0

    None.

Critical Paths under _INTERRUPT_InterruptManager in BANK0

    None.

Critical Paths under _main in BANK1

    None.

Critical Paths under _INTERRUPT_InterruptManager in BANK1

    None.

Critical Paths under _main in BANK2

    None.

Critical Paths under _INTERRUPT_InterruptManager in BANK2

    None.

Critical Paths under _main in BANK3

    None.

Critical Paths under _INTERRUPT_InterruptManager in BANK3

    None.

Critical Paths under _main in BANK4

    None.

Critical Paths under _INTERRUPT_InterruptManager in BANK4

    None.

Critical Paths under _main in BANK5

    None.

Critical Paths under _INTERRUPT_InterruptManager in BANK5

    None.

Critical Paths under _main in BANK6

    None.

Critical Paths under _INTERRUPT_InterruptManager in BANK6

    None.

Critical Paths under _main in BANK7

    None.

Critical Paths under _INTERRUPT_InterruptManager in BANK7

    None.

Critical Paths under _main in BANK8

    None.

Critical Paths under _INTERRUPT_InterruptManager in BANK8

    None.

Critical Paths under _main in BANK9

    None.

Critical Paths under _INTERRUPT_InterruptManager in BANK9

    None.

Critical Paths under _main in BANK10

    None.

Critical Paths under _INTERRUPT_InterruptManager in BANK10

    None.

Critical Paths under _main in BANK11

    None.

Critical Paths under _INTERRUPT_InterruptManager in BANK11

    None.

Critical Paths under _main in BANK12

    None.

Critical Paths under _INTERRUPT_InterruptManager in BANK12

    None.

Critical Paths under _main in BANK13

    None.

Critical Paths under _INTERRUPT_InterruptManager in BANK13

    None.

Critical Paths under _main in BANK14

    None.

Critical Paths under _INTERRUPT_InterruptManager in BANK14

    None.

Critical Paths under _main in BANK15

    None.

Critical Paths under _INTERRUPT_InterruptManager in BANK15

    None.

Call Graph Tables:

 ---------------------------------------------------------------------------------
 (Depth) Function   	        Calls       Base Space   Used Autos Params    Refs
 ---------------------------------------------------------------------------------
 (0) _main                                                22    22      0    3651
                                             24 COMRAM    22    22      0
           _ADCC_GetSingleConversion
                       _CAN_transmit
                  _SYSTEM_Initialize
 ---------------------------------------------------------------------------------
 (1) _SYSTEM_Initialize                                    0     0      0      98
                    _ADCC_Initialize
                    _ECAN_Initialize
               _INTERRUPT_Initialize
              _OSCILLATOR_Initialize
             _PIN_MANAGER_Initialize
                     _PMD_Initialize
 ---------------------------------------------------------------------------------
 (2) _PMD_Initialize                                       0     0      0       0
 ---------------------------------------------------------------------------------
 (2) _PIN_MANAGER_Initialize                               0     0      0       0
 ---------------------------------------------------------------------------------
 (2) _OSCILLATOR_Initialize                                0     0      0       0
 ---------------------------------------------------------------------------------
 (2) _INTERRUPT_Initialize                                 0     0      0       0
 ---------------------------------------------------------------------------------
 (2) _ECAN_Initialize                                      1     1      0      98
                                              2 COMRAM     1     1      0
     _ECAN_SetWakeUpInterruptHandler
 ---------------------------------------------------------------------------------
 (3) _ECAN_SetWakeUpInterruptHandler                       2     0      2      98
                                              0 COMRAM     2     0      2
 ---------------------------------------------------------------------------------
 (2) _ADCC_Initialize                                      0     0      0       0
 ---------------------------------------------------------------------------------
 (1) _CAN_transmit                                         7     5      2    3288
                                             18 COMRAM     6     4      2
                   _convertCANid2Reg
 ---------------------------------------------------------------------------------
 (2) _convertCANid2Reg                                    18     5     13    1928
                                              0 COMRAM    18     5     13
 ---------------------------------------------------------------------------------
 (1) _ADCC_GetSingleConversion                             5     3      2      22
                                              0 COMRAM     5     3      2
 ---------------------------------------------------------------------------------
 Estimated maximum stack depth 3
 ---------------------------------------------------------------------------------
 (Depth) Function   	        Calls       Base Space   Used Autos Params    Refs
 ---------------------------------------------------------------------------------
 (4) _INTERRUPT_InterruptManager                           0     0      0       0
                      _ECAN_WAKI_ISR
 ---------------------------------------------------------------------------------
 (5) _ECAN_WAKI_ISR                                        0     0      0       0
                   Absolute function *
      _WakeUpDefaultInterruptHandler *
 ---------------------------------------------------------------------------------
 (6) _WakeUpDefaultInterruptHandler                        0     0      0       0
 ---------------------------------------------------------------------------------
 (6) Absolute function(Fake)                               0     0      0       0
 ---------------------------------------------------------------------------------
 Estimated maximum stack depth 6
 ---------------------------------------------------------------------------------

 Call Graph Graphs:

 _main (ROOT)
   _ADCC_GetSingleConversion
   _CAN_transmit
     _convertCANid2Reg
   _SYSTEM_Initialize
     _ADCC_Initialize
     _ECAN_Initialize
       _ECAN_SetWakeUpInterruptHandler
     _INTERRUPT_Initialize
     _OSCILLATOR_Initialize
     _PIN_MANAGER_Initialize
     _PMD_Initialize

 _INTERRUPT_InterruptManager (ROOT)
   _ECAN_WAKI_ISR
     Absolute function(Fake) *
     _WakeUpDefaultInterruptHandler *

 Address spaces:
Name               Size   Autos  Total    Cost      Usage
BIGRAM             FFF      0       0      37        0.0%
EEDATA             400      0       0       0        0.0%
BITBANK15          100      0       0      35        0.0%
BANK15             100      0       0      36        0.0%
BITBANK14          100      0       0      33        0.0%
BANK14             100      0       0      34        0.0%
BITBANK13          100      0       0      31        0.0%
BANK13             100      0       0      32        0.0%
BITBANK12          100      0       0      29        0.0%
BANK12             100      0       0      30        0.0%
BITBANK11          100      0       0      27        0.0%
BANK11             100      0       0      28        0.0%
BITBANK10          100      0       0      25        0.0%
BANK10             100      0       0      26        0.0%
BITBANK9           100      0       0      23        0.0%
BANK9              100      0       0      24        0.0%
BITBANK8           100      0       0      21        0.0%
BANK8              100      0       0      22        0.0%
BITBANK7           100      0       0      19        0.0%
BANK7              100      0       0      20        0.0%
BITBANK6           100      0       0      17        0.0%
BANK6              100      0       0      18        0.0%
BITBANK5           100      0       0      15        0.0%
BANK5              100      0       0      16        0.0%
BITBANK4           100      0       0      13        0.0%
BANK4              100      0       0      14        0.0%
BITBANK3           100      0       0      11        0.0%
BANK3              100      0       0      12        0.0%
BITBANK2           100      0       0       9        0.0%
BANK2              100      0       0      10        0.0%
BITBANK1           100      0       0       7        0.0%
BANK1              100      0       0       8        0.0%
BITBANK0            A0      0       0       4        0.0%
BANK0               A0      0       0       5        0.0%
BITCOMRAM           5F      0       0       0        0.0%
COMRAM              5F     2E      30       1       50.5%
BITSFR_9             0      0       0     200        0.0%
SFR_9                0      0       0     200        0.0%
BITSFR_8             0      0       0     200        0.0%
SFR_8                0      0       0     200        0.0%
BITSFR_7             0      0       0     200        0.0%
SFR_7                0      0       0     200        0.0%
BITSFR_6             0      0       0     200        0.0%
SFR_6                0      0       0     200        0.0%
BITSFR_5             0      0       0     200        0.0%
SFR_5                0      0       0     200        0.0%
BITSFR_4             0      0       0     200        0.0%
SFR_4                0      0       0     200        0.0%
BITSFR_3             0      0       0     200        0.0%
SFR_3                0      0       0     200        0.0%
BITSFR_2             0      0       0     200        0.0%
SFR_2                0      0       0     200        0.0%
BITSFR_1             0      0       0     200        0.0%
SFR_1                0      0       0     200        0.0%
BITSFR               0      0       0     200        0.0%
SFR                  0      0       0     200        0.0%
STACK                0      0       0       2        0.0%
NULL                 0      0       0       0        0.0%
ABS                  0      0      30       6        0.0%
DATA                 0      0      30       3        0.0%
CODE                 0      0       0       0        0.0%


Microchip Technology PIC18 Macro Assembler V2.32 build 20210201212658 
Symbol Table                                                                                   Thu Jun 02 19:11:45 2022

                                     l53 795A                                       l97 784C  
               __size_of_ECAN_Initialize 00DE                                      l100 7832  
                                    l103 78CE                                      l401 7CA4  
                                    l404 781A                                      l360 7EE4  
                                    l504 79B6                                      l418 7810  
                                    l363 7FFA                                      l516 78E0  
                                    l349 7B0C                                      l358 7DCE  
                                    l519 7900                                      l359 7FFA  
                                    u300 7CC6                                      u301 7CC2  
                                    u310 7DDC                                      u311 7DD8  
                                    u320 7EF2                                      u321 7EEE  
                                    u330 78EE                                      u250 7A48  
                                    u331 78EA                                      u251 7A44  
                                    u260 7B0C                                      u261 7B08  
                                    u270 7B20                                      u271 7B1C  
  ECAN_SetWakeUpInterruptHandler@handler 0001                                      u347 7A1A  
                                    u285 7BB8                                      u295 7C6E  
                __size_of_PMD_Initialize 0024                                      tosl 003FFD  
                                    wreg 003FE8                                     l1301 795C  
                                   l1281 7916                                     l1291 794A  
                                   l1283 7942                                     l1293 794C  
                                   l1285 7944                                     l1295 780E  
                                   l1287 7946                                     l1279 7902  
                                   l1801 7CB6                                     l1289 7948  
                                   l1297 78AC                                     l1811 7D30  
                                   l1803 7CC6                                     l1299 781C  
                                   l1901 78D2                                     l1821 7D78  
                                   l1813 7D36                                     l1805 7D1E  
                                   l1741 7A48                                     l1903 78D8  
                                   l1831 7DC8                                     l1823 7D88  
                                   l1815 7D48                                     l1807 7D24  
                                   l1735 7812                                     l1751 7AF4  
                                   l1743 7ADE                                     l1905 78DC  
                                   l1761 7B60                                     l1753 7B0E  
                                   l1841 7E40                                     l1833 7DCA  
                                   l1825 7D98                                     l1817 7D58  
                                   l1809 7D2A                                     l1745 7AEA  
                                   l1737 7A30                                     l1921 79D4  
                                   l1913 79B8                                     l1907 78DE  
                                   l1771 7BE6                                     l1763 7BA0  
                                   l1755 7B0E                                     l1851 7E7E  
                                   l1843 7E46                                     l1835 7DDC  
                                   l1827 7DA8                                     l1819 7D68  
                                   l1747 7AEE                                     l1739 7A34  
                                   l1931 7A04                                     l1923 79E2  
                                   l1915 79BC                                     l1909 78EE  
                                   l1781 7C8E                                     l1773 7BF8  
                                   l1765 7BA6                                     l1757 7B20  
                                   l1861 7ECE                                     l1853 7E8E  
                                   l1845 7E4C                                     l1837 7E34  
                                   l1829 7DB8                                     l1749 7AF0  
                                   l1933 7A10                                     l1925 79F0  
                                   l1917 79C0                                     l1775 7C26  
                                   l1767 7BD8                                     l1759 7B32  
                                   l1871 7F50                                     l1863 7EDE  
                                   l1855 7E9E                                     l1847 7E5E  
                                   l1839 7E3A                                     l1791 783C  
                                   l1927 79FC                                     l1919 79D0  
                                   l1769 7BE0                                     l1777 7C3C  
                                   l1881 7F84                                     l1873 7F56  
                                   l1857 7EAE                                     l1849 7E6E  
                                   l1793 7840                                     l1929 7A00  
                                   l1779 7C5C                                     l1891 7FD4  
                                   l1883 7F94                                     l1875 7F5C  
                                   l1867 7EF2                                     l1859 7EBE  
                                   l1795 7844                                     l1787 7834  
                                   l1893 7FE4                                     l1885 7FA4  
                                   l1877 7F62                                     l1869 7F4A  
                                   l1797 7848                                     l1789 7838  
                                   l1895 7FF4                                     l1887 7FB4  
                                   l1879 7F74                                     l1799 7CA6  
                                   l1889 7FC4                                     _LATA 003FBA  
                                   _LATB 003FBB                                     _LATC 003FBC  
                                   _PMD0 0039C0                                     _PMD1 0039C1  
                                   _PMD2 0039C2                                     _PMD3 0039C3  
                                   _PMD4 0039C4                                     _PMD5 0039C5  
                                   _PMD6 0039C6                                     _PMD7 0039C7  
                                   _WPUA 003A41                                     _WPUB 003A51  
                                   _WPUC 003A61                                     _WPUE 003A81  
                            main@current 001F                                     _main 79B8  
           convertCANid2Reg@passedInEIDH 0006             convertCANid2Reg@passedInEIDL 0008  
                                   fsr2h 003FDA                                     indf2 003FDF  
                                   fsr2l 003FD9             convertCANid2Reg@passedInSIDH 000A  
           convertCANid2Reg@passedInSIDL 000C                                     start 7FFC  
                           ___param_bank 000000           __size_of_OSCILLATOR_Initialize 0018  
          __end_of_OSCILLATOR_Initialize 7834                                    _ADCAP 003EF5  
                                  _ADACT 003EFE                                    ?_main 0001  
                                  _ADCLK 003EFF                                    _ADCNT 003EEB  
                                  _ADPCH 003EF1                                    _ADREF 003EFD  
                                  _ADRPT 003EEC                                    i2l340 780C  
                                  i2l407 7886                                    i2l425 78AA  
                                  _OSCEN 0039DD                                    _TRISA 003FC2  
                                  _TRISB 003FC3                                    _TRISC 003FC4  
                   __end_of_CAN_transmit 7FFC                                    pclath 003FFA  
                                  status 003FD8                     CAN_transmit@tempEIDH 0015  
                   CAN_transmit@tempEIDL 0016                     CAN_transmit@tempSIDH 0017  
                   CAN_transmit@tempSIDL 0018                          __initialization 784E  
                           __end_of_main 7A30              ?_INTERRUPT_InterruptManager 0001  
                                 ??_main 0019                            __activetblptr 000002  
        ??_WakeUpDefaultInterruptHandler 0001                        ??_ECAN_Initialize 0003  
                                 _ADACCH 003EE9                                   _ADACCL 003EE8  
                                 _ADACCU 003EEA                                   _ADACQH 003EF4  
                                 _ADACQL 003EF3                                   _ADCON0 003EF8  
                                 _ADCON1 003EF9                                   _ADCON2 003EFA  
                                 _ADCON3 003EFB                                   _ADERRH 003EE3  
                                 _ADERRL 003EE2                                   _CANCON 003F8F  
                                 _ADLTHH 003EDF                                   _ADLTHL 003EDE  
                                 _ADRESH 003EF0                                   _ADRESL 003EEF  
                                 _ADPREH 003EF7                                   _ADPREL 003EF6  
                                 _ADSTAT 003EFC                                   _ADUTHH 003EE1  
                                 _ADUTHL 003EE0                                   _CIOCON 003700  
                                 _ANSELA 003A40                                   _ANSELB 003A50  
                                 _ANSELC 003A60                                   _RB4PPS 003A0C  
                                 _ODCONA 003A42                                   _ODCONB 003A52  
                                 _ODCONC 003A62                                   i2l1621 7888  
                                 i2l1623 7898                                   i2l1625 78A6  
                                 i2l1467 7868                                   i2l1469 7882  
                                 _INLVLA 003A44                                   _INLVLB 003A54  
                                 _INLVLC 003A64                                   _INLVLE 003A84  
                                 _OSCFRQ 0039DF                                   _RXB0D0 003F86  
                                 _RXB0D1 003F87                                   _RXB0D2 003F88  
                                 _RXB0D3 003F89                                   _RXB0D4 003F8A  
                                 _RXB1D0 0037F6                                   _RXB0D5 003F8B  
                                 _RXB1D1 0037F7                                   _RXB0D6 003F8C  
                                 _RXB1D2 0037F8                                   _RXB0D7 003F8D  
                                 _RXB1D3 0037F9                                   _RXB1D4 0037FA  
                                 _RXB1D5 0037FB                                   _RXB1D6 0037FC  
                                 _RXB1D7 0037FD                                   _TXB0D0 0037E6  
                                 _TXB0D1 0037E7                                   _TXB0D2 0037E8  
                                 _TXB0D3 0037E9                                   _TXB0D4 0037EA  
                                 _TXB1D0 0037D6                                   _TXB0D5 0037EB  
                                 _TXB1D1 0037D7                                   _TXB0D6 0037EC  
                                 _TXB1D2 0037D8                                   _TXB0D7 0037ED  
                                 _TXB1D3 0037D9                                   _TXB1D4 0037DA  
                                 _TXB2D0 0037C6                                   _TXB1D5 0037DB  
                                 _TXB2D1 0037C7                                   _TXB1D6 0037DC  
                                 _TXB2D2 0037C8                                   _TXB1D7 0037DD  
                                 _TXB2D3 0037C9                                   _TXB2D4 0037CA  
                                 _TXB2D5 0037CB                                   _TXB2D6 0037CC  
                                 _TXB2D7 0037CD                                   i2u9_48 786E  
                                 i2u9_49 7882                   __size_of_ECAN_WAKI_ISR 0020  
                                 isa$std 000001                          _ADCC_Initialize 795C  
                         _PMD_Initialize 78AC                __size_of_convertCANid2Reg 0198  
                                 tblptru 003FF8        __size_of_ADCC_GetSingleConversion 0032  
              ?_ADCC_GetSingleConversion 0001            __size_of_INTERRUPT_Initialize 0004  
                      _SYSTEM_Initialize 7834                               __accesstop 0060  
                __end_of__initialization 785E                       ?_SYSTEM_Initialize 0001  
                          ___rparam_used 000001                           __pcstackCOMRAM 0001  
                    ??_SYSTEM_Initialize 0004                   __end_of_PMD_Initialize 78D0  
                  __size_of_CAN_transmit 0356                            _ECAN_WAKI_ISR 7868  
              __end_of_SYSTEM_Initialize 784E    __end_of_WakeUpDefaultInterruptHandler 780E  
 __size_of_WakeUpDefaultInterruptHandler 0002            _WakeUpDefaultInterruptHandler 780C  
                                IVTBASEH 003FD6                                  IVTBASEL 003FD5  
                                IVTBASEU 003FD7                     main@current_analog_1 001B  
                   main@current_analog_2 001D                             _CAN_transmit 7CA6  
                __end_of_ADCC_Initialize 79B8                                  _ADFLTRH 003EE7  
                                _ADFLTRL 003EE6                                  _ECANCON 003F91  
                                _ADPREVH 003EEE                                  _ADPREVL 003EED  
                                _CANSTAT 003F8E                                  _ADSTPTH 003EE5  
                                _ADSTPTL 003EE4         ??_ECAN_SetWakeUpInterruptHandler 0003  
        ?_ECAN_SetWakeUpInterruptHandler 0001                          ?_PMD_Initialize 0001  
                                _BRGCON1 003703                                  _BRGCON2 003704  
                                _BRGCON3 003705                                  _OSCCON1 0039D9  
                                _OSCCON3 0039DB                           ?_ECAN_WAKI_ISR 0001  
                                i2u23_40 7898                                  i2u23_41 7894  
                                i2u24_40 78A6                                  i2u24_41 78A2  
                                _RXB0DLC 003F85                                  _RXB1DLC 0037F5  
                                _OSCTUNE 0039DE                                  _TXB0DLC 0037E5  
                                _SLRCONA 003A43                                  _SLRCONB 003A53  
                                _SLRCONC 003A63                                  _TXB1DLC 0037D5  
                                _TXB2DLC 0037C5                                  __Hparam 0000  
                                __Lparam 0000                          _ECAN_Initialize 7A30  
                                __pcinit 784E                                  __ramtop 1000  
                                __ptext0 79B8                                  __ptext1 7834  
                                __ptext2 78AC                                  __ptext3 7902  
                                __ptext4 781C                                  __ptext5 780E  
                                __ptext6 7A30                                  __ptext7 7812  
                                __ptext8 795C                                  __ptext9 7CA6  
                  _OSCILLATOR_Initialize 781C                         _convertCANid2Reg 7B0E  
               ??_PIN_MANAGER_Initialize 0001               __size_of_SYSTEM_Initialize 001A  
                   end_of_initialization 785E                   _WakeUpInterruptHandler 002F  
                          __Lmediumconst 0000         fp__WakeUpDefaultInterruptHandler 0000  
         ?_WakeUpDefaultInterruptHandler 0001                                  postinc2 003FDE  
                       ?_ADCC_Initialize 0001         __end_of_ADCC_GetSingleConversion 7902  
                        ??_ECAN_WAKI_ISR 0001                   CAN_transmit@tempCanMsg 0013  
                __end_of_ECAN_Initialize 7B0E             __end_of_INTERRUPT_Initialize 7812  
                 ?_OSCILLATOR_Initialize 0001                      start_initialization 784E  
        __size_of_PIN_MANAGER_Initialize 005A                               ivt0x8_base 0008  
                       ??_PMD_Initialize 0001                       main@CanCurrentData 0021  
               _ADCC_GetSingleConversion 78D0                              __pbssCOMRAM 002F  
 __end_of_ECAN_SetWakeUpInterruptHandler 781C  __size_of_ECAN_SetWakeUpInterruptHandler 000A  
         _ECAN_SetWakeUpInterruptHandler 7812                         ?_ECAN_Initialize 0001  
                 _PIN_MANAGER_Initialize 7902                 __end_of_convertCANid2Reg 7CA6  
        ADCC_GetSingleConversion@channel 0005             ??_INTERRUPT_InterruptManager 0001  
                            _COMSTATbits 003F90                                 _CANRXPPS 003AED  
         convertCANid2Reg@tempPassedInID 0001                     _INTERRUPT_Initialize 780E  
                               _PIE5bits 003995      __size_of_INTERRUPT_InterruptManager 0024  
                               _PIR5bits 0039A5                                 _RXB0EIDH 003F83  
                               _RXB0EIDL 003F84                                 _RXB1EIDH 0037F3  
                               _RXB1EIDL 0037F4                                 _RXB0SIDH 003F81  
                               _RXB0SIDL 003F82                                 _RXF0EIDH 0037A2  
                               _RXB1SIDH 0037F1                                 _RXF0EIDL 0037A3  
                               _RXB1SIDL 0037F2                                 _RXF1EIDH 0037A6  
                               _RXF1EIDL 0037A7                                 _RXF2EIDH 0037AA  
                               _RXF2EIDL 0037AB                                 _RXF3EIDH 0037AE  
                               _RXF3EIDL 0037AF                                 _RXF4EIDH 0037B2  
                               _RXF4EIDL 0037B3                                 _RXF5EIDH 0037B6  
                               _RXF5EIDL 0037B7                                 _RXF0SIDH 0037A0  
                               _RXF0SIDL 0037A1                                 _RXF1SIDH 0037A4  
                               _TXB0EIDH 0037E3                                 _RXF1SIDL 0037A5  
                               _TXB0EIDL 0037E4                                 _RXF2SIDH 0037A8  
                               _TXB1EIDH 0037D3                                 _RXF2SIDL 0037A9  
                               _TXB1EIDL 0037D4                                 _RXF3SIDH 0037AC  
                               _TXB2EIDH 0037C3                                 _RXF3SIDL 0037AD  
                               _TXB2EIDL 0037C4                                 _RXF4SIDH 0037B0  
                               _RXF4SIDL 0037B1                                 _RXF5SIDH 0037B4  
                               _RXF5SIDL 0037B5                                 _RXM0EIDH 0037BA  
                               _RXM0EIDL 0037BB                                 _RXM1EIDH 0037BE  
                               _TXB0SIDH 0037E1                                 _RXM1EIDL 0037BF  
                               _TXB0SIDL 0037E2                                 _TXB1SIDH 0037D1  
                               _TXB1SIDL 0037D2                                 _TXB2SIDH 0037C1  
                               _TXB2SIDL 0037C2                                 _RXM0SIDH 0037B8  
                               _RXM0SIDL 0037B9                                 _RXM1SIDH 0037BC  
                               _RXM1SIDL 0037BD                               _ADCON0bits 003EF8  
                             _ADCON1bits 003EF9                               _ADCON2bits 003EFA  
                             _ADCON3bits 003EFB                              _INTCON0bits 003FD2  
                  ?_INTERRUPT_Initialize 0001                               _ADSTATbits 003EFC  
                               __Hrparam 0000                                 __Lrparam 0000  
              convertCANid2Reg@canIdType 0005                  ??_OSCILLATOR_Initialize 0001  
                convertCANid2Reg@wipSIDL 0012                 __size_of_ADCC_Initialize 005C  
                  __end_of_ECAN_WAKI_ISR 7888                                 __pivt0x8 0008  
                               __ptext10 7B0E                                 __ptext11 78D0  
                               __ptext12 7888                                 __ptext13 7868  
                               __ptext14 780C                                 __ptext15 0000  
                          __size_of_main 0078                                 isa$xinst 000000  
                          ?_CAN_transmit 0013               ??_ADCC_GetSingleConversion 0003  
     __end_of_INTERRUPT_InterruptManager 78AC               _INTERRUPT_InterruptManager 7888  
                            _RXB0CONbits 003F80                              _RXB1CONbits 0037F0  
                 ??_INTERRUPT_Initialize 0001                                 intlevel2 0000  
                ?_PIN_MANAGER_Initialize 0001                              _TXB0CONbits 0037E0  
                            _TXB1CONbits 0037D0                              _TXB2CONbits 0037C0  
                         ??_CAN_transmit 0015                        ?_convertCANid2Reg 0001  
                     ??_convertCANid2Reg 000E           __end_of_PIN_MANAGER_Initialize 795C  
                      ??_ADCC_Initialize 0001  
